(lp0
(S'cppflags'
p1
ccopy_reg
_reconstructor
p2
(cino.utils
SpaceList
p3
c__builtin__
list
p4
(lp5
S'-mmcu=atmega328p'
p6
aS'-DF_CPU=16000000L'
p7
aS'-DARDUINO=105'
p8
aS'-I/usr/share/arduino/hardware/arduino/cores/arduino'
p9
aS'-ffunction-sections'
p10
aS'-fdata-sections'
p11
aS'-g'
p12
aS'-Os'
p13
aS'-w'
p14
aS'-I/usr/share/arduino/hardware/arduino/variants/standard'
p15
aS'-I/usr/share/arduino/libraries/MIDI'
p16
aS'-I/usr/share/arduino/hardware/arduino/cores/arduino'
p17
aS'-I/usr/share/arduino/hardware/arduino/cores/arduino/avr-libc'
p18
atp19
Rp20
tp21
a(S'version.txt'
p22
S'/usr/share/arduino/lib/version.txt'
p23
tp24
a(S'used_libs'
p25
(lp26
S'/usr/share/arduino/libraries/MIDI'
p27
aS'/usr/share/arduino/hardware/arduino/cores/arduino'
p28
atp29
a(S'cc'
p30
S'/usr/bin/avr-gcc'
p31
tp32
a(S'make'
p33
S'/usr/bin/make'
p34
tp35
a(S'build_dir'
p36
S'.build/atmega328'
p37
tp38
a(S'arduino_core_dir'
p39
g28
tp40
a(S'boards.txt'
p41
S'/usr/share/arduino/hardware/arduino/boards.txt'
p42
tp43
a(S'cxxflags'
p44
g2
(g3
g4
(lp45
S'-fno-exceptions'
p46
atp47
Rp48
tp49
a(S'arduino_variants_dir'
p50
S'/usr/share/arduino/hardware/arduino/variants'
p51
tp52
a(S'deps'
p53
g2
(g3
g4
(lp54
S'.build/atmega328/src/dependencies.d'
p55
aS'.build/atmega328/arduino/dependencies.d'
p56
aS'.build/atmega328/MIDI/dependencies.d'
p57
atp58
Rp59
tp60
a(S'ar'
p61
S'/usr/bin/avr-ar'
p62
tp63
a(S'names'
p64
(dp65
S'cpp'
p66
S'%s.cpp'
p67
sS'obj'
p68
S'%s.o'
p69
sg53
S'%s.d'
p70
sS'lib'
p71
S'lib%s.a'
p72
stp73
a(S'cflags'
p74
g2
(g3
g4
(lp75
tp76
Rp77
tp78
a(S'ldflags'
p79
g2
(g3
g4
(lp80
g6
aS'-Wl,-Os'
p81
aS'-Wl,--gc-sections'
p82
atp83
Rp84
tp85
a(S'arduino_libraries_dir'
p86
S'/usr/share/arduino/libraries'
p87
tp88
a(S'arduino_lib_version'
p89
g2
(cino.environment
Version
p90
c__builtin__
tuple
p91
(I1
I0
I5
tp92
tp93
Rp94
tp95
a(S'objcopy'
p96
S'/usr/bin/avr-objcopy'
p97
tp98
a(S'board_models'
p99
cino.environment
BoardModels
p100
((lp101
(lp102
S'uno'
p103
a(dp104
S'build'
p105
(dp106
S'core'
p107
S'arduino'
p108
sS'mcu'
p109
S'atmega328p'
p110
sS'cppoption1'
p111
S'-fno-use-cxa-atexit'
p112
sS'f_cpu'
p113
S'16000000L'
p114
sS'variant'
p115
S'standard'
p116
ssS'bootloader'
p117
(dp118
S'extended_fuses'
p119
S'0x05'
p120
sS'high_fuses'
p121
S'0xde'
p122
sS'low_fuses'
p123
S'0xff'
p124
sS'lock_bits'
p125
S'0x0F'
p126
sS'file'
p127
S'optiboot_atmega328.hex'
p128
sS'path'
p129
S'optiboot'
p130
sS'unlock_bits'
p131
S'0x3F'
p132
ssS'name'
p133
S'Arduino Uno'
p134
sS'upload'
p135
(dp136
S'speed'
p137
S'115200'
p138
sS'maximum_size'
p139
S'32256'
p140
sS'protocol'
p141
S'arduino'
p142
ssaa(lp143
S'atmega328'
p144
a(dp145
S'build'
p146
(dp147
S'core'
p148
S'arduino'
p149
sS'mcu'
p150
S'atmega328p'
p151
sS'cppoption1'
p152
S'-fno-use-cxa-atexit'
p153
sS'f_cpu'
p154
S'16000000L'
p155
sS'variant'
p156
S'standard'
p157
ssS'bootloader'
p158
(dp159
S'extended_fuses'
p160
S'0x05'
p161
sS'high_fuses'
p162
S'0xDA'
p163
sS'low_fuses'
p164
S'0xFF'
p165
sS'lock_bits'
p166
S'0x0F'
p167
sS'file'
p168
S'ATmegaBOOT_168_atmega328.hex'
p169
sS'path'
p170
S'atmega'
p171
sS'unlock_bits'
p172
S'0x3F'
p173
ssS'name'
p174
S'Arduino Duemilanove w/ ATmega328'
p175
sS'upload'
p176
(dp177
S'speed'
p178
S'57600'
p179
sS'maximum_size'
p180
S'30720'
p181
sS'protocol'
p182
S'arduino'
p183
ssaa(lp184
S'diecimila'
p185
a(dp186
S'build'
p187
(dp188
S'core'
p189
S'arduino'
p190
sS'mcu'
p191
S'atmega168'
p192
sS'cppoption1'
p193
S'-fno-use-cxa-atexit'
p194
sS'f_cpu'
p195
S'16000000L'
p196
sS'variant'
p197
S'standard'
p198
ssS'bootloader'
p199
(dp200
S'extended_fuses'
p201
S'0x00'
p202
sS'high_fuses'
p203
S'0xdd'
p204
sS'low_fuses'
p205
S'0xff'
p206
sS'lock_bits'
p207
S'0x0F'
p208
sS'file'
p209
S'ATmegaBOOT_168_diecimila.hex'
p210
sS'path'
p211
S'atmega'
p212
sS'unlock_bits'
p213
S'0x3F'
p214
ssS'name'
p215
S'Arduino Diecimila or Duemilanove w/ ATmega168'
p216
sS'upload'
p217
(dp218
S'speed'
p219
S'19200'
p220
sS'maximum_size'
p221
S'14336'
p222
sS'protocol'
p223
S'arduino'
p224
ssaa(lp225
S'nano328'
p226
a(dp227
S'build'
p228
(dp229
S'core'
p230
S'arduino'
p231
sS'mcu'
p232
S'atmega328p'
p233
sS'cppoption1'
p234
S'-fno-use-cxa-atexit'
p235
sS'f_cpu'
p236
S'16000000L'
p237
sS'variant'
p238
S'eightanaloginputs'
p239
ssS'bootloader'
p240
(dp241
S'extended_fuses'
p242
S'0x05'
p243
sS'high_fuses'
p244
S'0xDA'
p245
sS'low_fuses'
p246
S'0xFF'
p247
sS'lock_bits'
p248
S'0x0F'
p249
sS'file'
p250
S'ATmegaBOOT_168_atmega328.hex'
p251
sS'path'
p252
S'atmega'
p253
sS'unlock_bits'
p254
S'0x3F'
p255
ssS'name'
p256
S'Arduino Nano w/ ATmega328'
p257
sS'upload'
p258
(dp259
S'speed'
p260
S'57600'
p261
sS'maximum_size'
p262
S'30720'
p263
sS'protocol'
p264
S'arduino'
p265
ssaa(lp266
S'nano'
p267
a(dp268
S'build'
p269
(dp270
S'core'
p271
S'arduino'
p272
sS'mcu'
p273
S'atmega168'
p274
sS'cppoption1'
p275
S'-fno-use-cxa-atexit'
p276
sS'f_cpu'
p277
S'16000000L'
p278
sS'variant'
p279
S'eightanaloginputs'
p280
ssS'bootloader'
p281
(dp282
S'extended_fuses'
p283
S'0x00'
p284
sS'high_fuses'
p285
S'0xdd'
p286
sS'low_fuses'
p287
S'0xff'
p288
sS'lock_bits'
p289
S'0x0F'
p290
sS'file'
p291
S'ATmegaBOOT_168_diecimila.hex'
p292
sS'path'
p293
S'atmega'
p294
sS'unlock_bits'
p295
S'0x3F'
p296
ssS'name'
p297
S'Arduino Nano w/ ATmega168'
p298
sS'upload'
p299
(dp300
S'speed'
p301
S'19200'
p302
sS'maximum_size'
p303
S'14336'
p304
sS'protocol'
p305
S'arduino'
p306
ssaa(lp307
S'mega2560'
p308
a(dp309
S'build'
p310
(dp311
S'core'
p312
S'arduino'
p313
sS'mcu'
p314
S'atmega2560'
p315
sS'cppoption1'
p316
S'-fno-use-cxa-atexit'
p317
sS'f_cpu'
p318
S'16000000L'
p319
sS'variant'
p320
S'mega'
p321
ssS'bootloader'
p322
(dp323
S'extended_fuses'
p324
S'0xFD'
p325
sS'high_fuses'
p326
S'0xD8'
p327
sS'low_fuses'
p328
S'0xFF'
p329
sS'lock_bits'
p330
S'0x0F'
p331
sS'file'
p332
S'stk500boot_v2_mega2560.hex'
p333
sS'path'
p334
S'stk500v2'
p335
sS'unlock_bits'
p336
S'0x3F'
p337
ssS'name'
p338
S'Arduino Mega 2560 or Mega ADK'
p339
sS'upload'
p340
(dp341
S'speed'
p342
S'115200'
p343
sS'maximum_size'
p344
S'258048'
p345
sS'protocol'
p346
S'wiring'
p347
ssaa(lp348
S'mega'
p349
a(dp350
S'build'
p351
(dp352
S'core'
p353
S'arduino'
p354
sS'mcu'
p355
S'atmega1280'
p356
sS'cppoption1'
p357
S'-fno-use-cxa-atexit'
p358
sS'f_cpu'
p359
S'16000000L'
p360
sS'variant'
p361
S'mega'
p362
ssS'bootloader'
p363
(dp364
S'extended_fuses'
p365
S'0xF5'
p366
sS'high_fuses'
p367
S'0xDA'
p368
sS'low_fuses'
p369
S'0xFF'
p370
sS'lock_bits'
p371
S'0x0F'
p372
sS'file'
p373
S'ATmegaBOOT_168_atmega1280.hex'
p374
sS'path'
p375
S'atmega'
p376
sS'unlock_bits'
p377
S'0x3F'
p378
ssS'name'
p379
S'Arduino Mega (ATmega1280)'
p380
sS'upload'
p381
(dp382
S'speed'
p383
S'57600'
p384
sS'maximum_size'
p385
S'126976'
p386
sS'protocol'
p387
S'arduino'
p388
ssaa(lp389
S'leonardo'
p390
a(dp391
S'build'
p392
(dp393
S'core'
p394
S'arduino'
p395
sS'f_cpu'
p396
S'16000000L'
p397
sS'vid'
p398
S'0x2341'
p399
sS'pid'
p400
S'0x8036'
p401
sS'cppoption1'
p402
S'-fno-use-cxa-atexit'
p403
sS'variant'
p404
S'leonardo'
p405
sS'mcu'
p406
S'atmega32u4'
p407
ssS'bootloader'
p408
(dp409
S'extended_fuses'
p410
S'0xcb'
p411
sS'high_fuses'
p412
S'0xd8'
p413
sS'low_fuses'
p414
S'0xff'
p415
sS'lock_bits'
p416
S'0x2F'
p417
sS'file'
p418
S'Caterina-Leonardo.hex'
p419
sS'path'
p420
S'caterina'
p421
sS'unlock_bits'
p422
S'0x3F'
p423
ssS'name'
p424
S'Arduino Leonardo'
p425
sS'upload'
p426
(dp427
S'speed'
p428
S'57600'
p429
sS'maximum_size'
p430
S'28672'
p431
sS'protocol'
p432
S'avr109'
p433
sS'disable_flushing'
p434
S'true'
p435
ssaa(lp436
S'esplora'
p437
a(dp438
S'build'
p439
(dp440
S'core'
p441
S'arduino'
p442
sS'f_cpu'
p443
S'16000000L'
p444
sS'vid'
p445
S'0x2341'
p446
sS'pid'
p447
S'0x803C'
p448
sS'cppoption1'
p449
S'-fno-use-cxa-atexit'
p450
sS'variant'
p451
S'leonardo'
p452
sS'mcu'
p453
S'atmega32u4'
p454
ssS'bootloader'
p455
(dp456
S'extended_fuses'
p457
S'0xcb'
p458
sS'high_fuses'
p459
S'0xd8'
p460
sS'low_fuses'
p461
S'0xff'
p462
sS'lock_bits'
p463
S'0x2F'
p464
sS'file'
p465
S'Caterina-Esplora.hex'
p466
sS'path'
p467
S'caterina'
p468
sS'unlock_bits'
p469
S'0x3F'
p470
ssS'name'
p471
S'Arduino Esplora'
p472
sS'upload'
p473
(dp474
S'speed'
p475
S'57600'
p476
sS'maximum_size'
p477
S'28672'
p478
sS'protocol'
p479
S'avr109'
p480
sS'disable_flushing'
p481
S'true'
p482
ssaa(lp483
S'micro'
p484
a(dp485
S'build'
p486
(dp487
S'core'
p488
S'arduino'
p489
sS'f_cpu'
p490
S'16000000L'
p491
sS'vid'
p492
S'0x2341'
p493
sS'pid'
p494
S'0x8037'
p495
sS'cppoption1'
p496
S'-fno-use-cxa-atexit'
p497
sS'variant'
p498
S'micro'
p499
sS'mcu'
p500
S'atmega32u4'
p501
ssS'bootloader'
p502
(dp503
S'extended_fuses'
p504
S'0xcb'
p505
sS'high_fuses'
p506
S'0xd8'
p507
sS'low_fuses'
p508
S'0xff'
p509
sS'lock_bits'
p510
S'0x2F'
p511
sS'file'
p512
S'Caterina-Micro.hex'
p513
sS'path'
p514
S'caterina'
p515
sS'unlock_bits'
p516
S'0x3F'
p517
ssS'name'
p518
S'Arduino Micro'
p519
sS'upload'
p520
(dp521
S'speed'
p522
S'57600'
p523
sS'maximum_size'
p524
S'28672'
p525
sS'protocol'
p526
S'avr109'
p527
sS'disable_flushing'
p528
S'true'
p529
ssaa(lp530
S'mini328'
p531
a(dp532
S'build'
p533
(dp534
S'core'
p535
S'arduino'
p536
sS'mcu'
p537
S'atmega328p'
p538
sS'cppoption1'
p539
S'-fno-use-cxa-atexit'
p540
sS'f_cpu'
p541
S'16000000L'
p542
sS'variant'
p543
S'eightanaloginputs'
p544
ssS'bootloader'
p545
(dp546
S'extended_fuses'
p547
S'0x05'
p548
sS'high_fuses'
p549
S'0xd8'
p550
sS'low_fuses'
p551
S'0xff'
p552
sS'lock_bits'
p553
S'0x0F'
p554
sS'file'
p555
S'optiboot_atmega328-Mini.hex'
p556
sS'path'
p557
S'optiboot'
p558
sS'unlock_bits'
p559
S'0x3F'
p560
ssS'name'
p561
S'Arduino Mini w/ ATmega328'
p562
sS'upload'
p563
(dp564
S'speed'
p565
S'115200'
p566
sS'maximum_size'
p567
S'28672'
p568
sS'protocol'
p569
S'arduino'
p570
ssaa(lp571
S'mini'
p572
a(dp573
S'build'
p574
(dp575
S'core'
p576
S'arduino'
p577
sS'mcu'
p578
S'atmega168'
p579
sS'cppoption1'
p580
S'-fno-use-cxa-atexit'
p581
sS'f_cpu'
p582
S'16000000L'
p583
sS'variant'
p584
S'eightanaloginputs'
p585
ssS'bootloader'
p586
(dp587
S'extended_fuses'
p588
S'0x00'
p589
sS'high_fuses'
p590
S'0xdd'
p591
sS'low_fuses'
p592
S'0xff'
p593
sS'lock_bits'
p594
S'0x0F'
p595
sS'file'
p596
S'ATmegaBOOT_168_ng.hex'
p597
sS'path'
p598
S'atmega'
p599
sS'unlock_bits'
p600
S'0x3F'
p601
ssS'name'
p602
S'Arduino Mini w/ ATmega168'
p603
sS'upload'
p604
(dp605
S'speed'
p606
S'19200'
p607
sS'maximum_size'
p608
S'14336'
p609
sS'protocol'
p610
S'arduino'
p611
ssaa(lp612
S'ethernet'
p613
a(dp614
S'build'
p615
(dp616
S'f_cpu'
p617
S'16000000L'
p618
sS'mcu'
p619
S'atmega328p'
p620
sS'cppoption1'
p621
S'-fno-use-cxa-atexit'
p622
sS'variant'
p623
S'standard'
p624
sS'core'
p625
S'arduino'
p626
ssS'bootloader'
p627
(dp628
S'extended_fuses'
p629
S'0x05'
p630
sS'high_fuses'
p631
S'0xde'
p632
sS'low_fuses'
p633
S'0xff'
p634
sS'lock_bits'
p635
S'0x0F'
p636
sS'file'
p637
S'optiboot_atmega328.hex'
p638
sS'path'
p639
S'optiboot'
p640
sS'unlock_bits'
p641
S'0x3F'
p642
ssS'name'
p643
S'Arduino Ethernet'
p644
sS'upload'
p645
(dp646
S'speed'
p647
S'115200'
p648
sS'maximum_size'
p649
S'32256'
p650
sS'protocol'
p651
S'arduino'
p652
ssaa(lp653
S'fio'
p654
a(dp655
S'build'
p656
(dp657
S'core'
p658
S'arduino'
p659
sS'mcu'
p660
S'atmega328p'
p661
sS'cppoption1'
p662
S'-fno-use-cxa-atexit'
p663
sS'f_cpu'
p664
S'8000000L'
p665
sS'variant'
p666
S'eightanaloginputs'
p667
ssS'bootloader'
p668
(dp669
S'extended_fuses'
p670
S'0x05'
p671
sS'high_fuses'
p672
S'0xDA'
p673
sS'low_fuses'
p674
S'0xFF'
p675
sS'lock_bits'
p676
S'0x0F'
p677
sS'file'
p678
S'ATmegaBOOT_168_atmega328_pro_8MHz.hex'
p679
sS'path'
p680
S'arduino:atmega'
p681
sS'unlock_bits'
p682
S'0x3F'
p683
ssS'name'
p684
S'Arduino Fio'
p685
sS'upload'
p686
(dp687
S'speed'
p688
S'57600'
p689
sS'maximum_size'
p690
S'30720'
p691
sS'protocol'
p692
S'arduino'
p693
ssaa(lp694
S'bt328'
p695
a(dp696
S'build'
p697
(dp698
S'core'
p699
S'arduino'
p700
sS'mcu'
p701
S'atmega328p'
p702
sS'cppoption1'
p703
S'-fno-use-cxa-atexit'
p704
sS'f_cpu'
p705
S'16000000L'
p706
sS'variant'
p707
S'eightanaloginputs'
p708
ssS'bootloader'
p709
(dp710
S'extended_fuses'
p711
S'0x05'
p712
sS'high_fuses'
p713
S'0xd8'
p714
sS'low_fuses'
p715
S'0xff'
p716
sS'lock_bits'
p717
S'0x0F'
p718
sS'file'
p719
S'ATmegaBOOT_168_atmega328_bt.hex'
p720
sS'path'
p721
S'bt'
p722
sS'unlock_bits'
p723
S'0x3F'
p724
ssS'name'
p725
S'Arduino BT w/ ATmega328'
p726
sS'upload'
p727
(dp728
S'speed'
p729
S'19200'
p730
sS'maximum_size'
p731
S'28672'
p732
sS'protocol'
p733
S'arduino'
p734
sS'disable_flushing'
p735
S'true'
p736
ssaa(lp737
S'bt'
p738
a(dp739
S'build'
p740
(dp741
S'core'
p742
S'arduino'
p743
sS'mcu'
p744
S'atmega168'
p745
sS'cppoption1'
p746
S'-fno-use-cxa-atexit'
p747
sS'f_cpu'
p748
S'16000000L'
p749
sS'variant'
p750
S'eightanaloginputs'
p751
ssS'bootloader'
p752
(dp753
S'extended_fuses'
p754
S'0x00'
p755
sS'high_fuses'
p756
S'0xdd'
p757
sS'low_fuses'
p758
S'0xff'
p759
sS'lock_bits'
p760
S'0x0F'
p761
sS'file'
p762
S'ATmegaBOOT_168.hex'
p763
sS'path'
p764
S'bt'
p765
sS'unlock_bits'
p766
S'0x3F'
p767
ssS'name'
p768
S'Arduino BT w/ ATmega168'
p769
sS'upload'
p770
(dp771
S'speed'
p772
S'19200'
p773
sS'maximum_size'
p774
S'14336'
p775
sS'protocol'
p776
S'arduino'
p777
sS'disable_flushing'
p778
S'true'
p779
ssaa(lp780
S'LilyPadUSB'
p781
a(dp782
S'build'
p783
(dp784
S'core'
p785
S'arduino'
p786
sS'f_cpu'
p787
S'8000000L'
p788
sS'vid'
p789
S'0x1B4F'
p790
sS'pid'
p791
S'0x9208'
p792
sS'cppoption1'
p793
S'-fno-use-cxa-atexit'
p794
sS'variant'
p795
S'leonardo'
p796
sS'mcu'
p797
S'atmega32u4'
p798
ssS'bootloader'
p799
(dp800
S'extended_fuses'
p801
S'0xce'
p802
sS'high_fuses'
p803
S'0xd8'
p804
sS'low_fuses'
p805
S'0xff'
p806
sS'lock_bits'
p807
S'0x2F'
p808
sS'file'
p809
S'Caterina-LilyPadUSB.hex'
p810
sS'path'
p811
S'caterina-LilyPadUSB'
p812
sS'unlock_bits'
p813
S'0x3F'
p814
ssS'name'
p815
S'LilyPad Arduino USB'
p816
sS'upload'
p817
(dp818
S'speed'
p819
S'57600'
p820
sS'maximum_size'
p821
S'28672'
p822
sS'protocol'
p823
S'avr109'
p824
sS'disable_flushing'
p825
S'true'
p826
ssaa(lp827
S'lilypad328'
p828
a(dp829
S'build'
p830
(dp831
S'core'
p832
S'arduino'
p833
sS'mcu'
p834
S'atmega328p'
p835
sS'cppoption1'
p836
S'-fno-use-cxa-atexit'
p837
sS'f_cpu'
p838
S'8000000L'
p839
sS'variant'
p840
S'standard'
p841
ssS'bootloader'
p842
(dp843
S'extended_fuses'
p844
S'0x05'
p845
sS'high_fuses'
p846
S'0xDA'
p847
sS'low_fuses'
p848
S'0xFF'
p849
sS'lock_bits'
p850
S'0x0F'
p851
sS'file'
p852
S'ATmegaBOOT_168_atmega328_pro_8MHz.hex'
p853
sS'path'
p854
S'atmega'
p855
sS'unlock_bits'
p856
S'0x3F'
p857
ssS'name'
p858
S'LilyPad Arduino w/ ATmega328'
p859
sS'upload'
p860
(dp861
S'speed'
p862
S'57600'
p863
sS'maximum_size'
p864
S'30720'
p865
sS'protocol'
p866
S'arduino'
p867
ssaa(lp868
S'lilypad'
p869
a(dp870
S'build'
p871
(dp872
S'core'
p873
S'arduino'
p874
sS'mcu'
p875
S'atmega168'
p876
sS'cppoption1'
p877
S'-fno-use-cxa-atexit'
p878
sS'f_cpu'
p879
S'8000000L'
p880
sS'variant'
p881
S'standard'
p882
ssS'bootloader'
p883
(dp884
S'extended_fuses'
p885
S'0x00'
p886
sS'high_fuses'
p887
S'0xdd'
p888
sS'low_fuses'
p889
S'0xe2'
p890
sS'lock_bits'
p891
S'0x0F'
p892
sS'file'
p893
S'LilyPadBOOT_168.hex'
p894
sS'path'
p895
S'lilypad'
p896
sS'unlock_bits'
p897
S'0x3F'
p898
ssS'name'
p899
S'LilyPad Arduino w/ ATmega168'
p900
sS'upload'
p901
(dp902
S'speed'
p903
S'19200'
p904
sS'maximum_size'
p905
S'14336'
p906
sS'protocol'
p907
S'arduino'
p908
ssaa(lp909
S'pro5v328'
p910
a(dp911
S'build'
p912
(dp913
S'core'
p914
S'arduino'
p915
sS'mcu'
p916
S'atmega328p'
p917
sS'cppoption1'
p918
S'-fno-use-cxa-atexit'
p919
sS'f_cpu'
p920
S'16000000L'
p921
sS'variant'
p922
S'standard'
p923
ssS'bootloader'
p924
(dp925
S'extended_fuses'
p926
S'0x05'
p927
sS'high_fuses'
p928
S'0xDA'
p929
sS'low_fuses'
p930
S'0xFF'
p931
sS'lock_bits'
p932
S'0x0F'
p933
sS'file'
p934
S'ATmegaBOOT_168_atmega328.hex'
p935
sS'path'
p936
S'atmega'
p937
sS'unlock_bits'
p938
S'0x3F'
p939
ssS'name'
p940
S'Arduino Pro or Pro Mini (5V, 16 MHz) w/ ATmega328'
p941
sS'upload'
p942
(dp943
S'speed'
p944
S'57600'
p945
sS'maximum_size'
p946
S'30720'
p947
sS'protocol'
p948
S'arduino'
p949
ssaa(lp950
S'pro5v'
p951
a(dp952
S'build'
p953
(dp954
S'core'
p955
S'arduino'
p956
sS'mcu'
p957
S'atmega168'
p958
sS'cppoption1'
p959
S'-fno-use-cxa-atexit'
p960
sS'f_cpu'
p961
S'16000000L'
p962
sS'variant'
p963
S'standard'
p964
ssS'bootloader'
p965
(dp966
S'extended_fuses'
p967
S'0x00'
p968
sS'high_fuses'
p969
S'0xdd'
p970
sS'low_fuses'
p971
S'0xff'
p972
sS'lock_bits'
p973
S'0x0F'
p974
sS'file'
p975
S'ATmegaBOOT_168_diecimila.hex'
p976
sS'path'
p977
S'atmega'
p978
sS'unlock_bits'
p979
S'0x3F'
p980
ssS'name'
p981
S'Arduino Pro or Pro Mini (5V, 16 MHz) w/ ATmega168'
p982
sS'upload'
p983
(dp984
S'speed'
p985
S'19200'
p986
sS'maximum_size'
p987
S'14336'
p988
sS'protocol'
p989
S'arduino'
p990
ssaa(lp991
S'pro328'
p992
a(dp993
S'build'
p994
(dp995
S'core'
p996
S'arduino'
p997
sS'mcu'
p998
S'atmega328p'
p999
sS'cppoption1'
p1000
S'-fno-use-cxa-atexit'
p1001
sS'f_cpu'
p1002
S'8000000L'
p1003
sS'variant'
p1004
S'standard'
p1005
ssS'bootloader'
p1006
(dp1007
S'extended_fuses'
p1008
S'0x05'
p1009
sS'high_fuses'
p1010
S'0xDA'
p1011
sS'low_fuses'
p1012
S'0xFF'
p1013
sS'lock_bits'
p1014
S'0x0F'
p1015
sS'file'
p1016
S'ATmegaBOOT_168_atmega328_pro_8MHz.hex'
p1017
sS'path'
p1018
S'atmega'
p1019
sS'unlock_bits'
p1020
S'0x3F'
p1021
ssS'name'
p1022
S'Arduino Pro or Pro Mini (3.3V, 8 MHz) w/ ATmega328'
p1023
sS'upload'
p1024
(dp1025
S'speed'
p1026
S'57600'
p1027
sS'maximum_size'
p1028
S'30720'
p1029
sS'protocol'
p1030
S'arduino'
p1031
ssaa(lp1032
S'pro'
p1033
a(dp1034
S'build'
p1035
(dp1036
S'core'
p1037
S'arduino'
p1038
sS'mcu'
p1039
S'atmega168'
p1040
sS'cppoption1'
p1041
S'-fno-use-cxa-atexit'
p1042
sS'f_cpu'
p1043
S'8000000L'
p1044
sS'variant'
p1045
S'standard'
p1046
ssS'bootloader'
p1047
(dp1048
S'extended_fuses'
p1049
S'0x00'
p1050
sS'high_fuses'
p1051
S'0xdd'
p1052
sS'low_fuses'
p1053
S'0xc6'
p1054
sS'lock_bits'
p1055
S'0x0F'
p1056
sS'file'
p1057
S'ATmegaBOOT_168_pro_8MHz.hex'
p1058
sS'path'
p1059
S'atmega'
p1060
sS'unlock_bits'
p1061
S'0x3F'
p1062
ssS'name'
p1063
S'Arduino Pro or Pro Mini (3.3V, 8 MHz) w/ ATmega168'
p1064
sS'upload'
p1065
(dp1066
S'speed'
p1067
S'19200'
p1068
sS'maximum_size'
p1069
S'14336'
p1070
sS'protocol'
p1071
S'arduino'
p1072
ssaa(lp1073
S'atmega168'
p1074
a(dp1075
S'build'
p1076
(dp1077
S'core'
p1078
S'arduino'
p1079
sS'mcu'
p1080
S'atmega168'
p1081
sS'cppoption1'
p1082
S'-fno-use-cxa-atexit'
p1083
sS'f_cpu'
p1084
S'16000000L'
p1085
sS'variant'
p1086
S'standard'
p1087
ssS'bootloader'
p1088
(dp1089
S'extended_fuses'
p1090
S'0x00'
p1091
sS'high_fuses'
p1092
S'0xdd'
p1093
sS'low_fuses'
p1094
S'0xff'
p1095
sS'lock_bits'
p1096
S'0x0F'
p1097
sS'file'
p1098
S'ATmegaBOOT_168_ng.hex'
p1099
sS'path'
p1100
S'atmega'
p1101
sS'unlock_bits'
p1102
S'0x3F'
p1103
ssS'name'
p1104
S'Arduino NG or older w/ ATmega168'
p1105
sS'upload'
p1106
(dp1107
S'speed'
p1108
S'19200'
p1109
sS'maximum_size'
p1110
S'14336'
p1111
sS'protocol'
p1112
S'arduino'
p1113
ssaa(lp1114
S'atmega8'
p1115
a(dp1116
S'build'
p1117
(dp1118
S'core'
p1119
S'arduino'
p1120
sS'mcu'
p1121
S'atmega8'
p1122
sS'cppoption1'
p1123
S'-fno-use-cxa-atexit'
p1124
sS'f_cpu'
p1125
S'16000000L'
p1126
sS'variant'
p1127
S'standard'
p1128
ssS'bootloader'
p1129
(dp1130
S'high_fuses'
p1131
S'0xca'
p1132
sS'low_fuses'
p1133
S'0xdf'
p1134
sS'lock_bits'
p1135
S'0x0F'
p1136
sS'file'
p1137
S'ATmegaBOOT-prod-firmware-2009-11-07.hex'
p1138
sS'path'
p1139
S'atmega8'
p1140
sS'unlock_bits'
p1141
S'0x3F'
p1142
ssS'name'
p1143
S'Arduino NG or older w/ ATmega8'
p1144
sS'upload'
p1145
(dp1146
S'speed'
p1147
S'19200'
p1148
sS'maximum_size'
p1149
S'7168'
p1150
sS'protocol'
p1151
S'arduino'
p1152
ssaa(lp1153
S'robotControl'
p1154
a(dp1155
S'build'
p1156
(dp1157
S'core'
p1158
S'robot'
p1159
sS'f_cpu'
p1160
S'16000000L'
p1161
sS'vid'
p1162
S'0x2341'
p1163
sS'pid'
p1164
S'0x8038'
p1165
sS'cppoption1'
p1166
S'-fno-use-cxa-atexit'
p1167
sS'variant'
p1168
S'robot_control'
p1169
sS'mcu'
p1170
S'atmega32u4'
p1171
ssS'bootloader'
p1172
(dp1173
S'extended_fuses'
p1174
S'0xcb'
p1175
sS'high_fuses'
p1176
S'0xd8'
p1177
sS'low_fuses'
p1178
S'0xff'
p1179
sS'lock_bits'
p1180
S'0x2F'
p1181
sS'file'
p1182
S'Caterina-Robot-Control.hex'
p1183
sS'path'
p1184
S'caterina-Arduino_Robot'
p1185
sS'unlock_bits'
p1186
S'0x3F'
p1187
ssS'name'
p1188
S'Arduino Robot Control'
p1189
sS'upload'
p1190
(dp1191
S'speed'
p1192
S'57600'
p1193
sS'maximum_size'
p1194
S'28672'
p1195
sS'protocol'
p1196
S'avr109'
p1197
sS'disable_flushing'
p1198
S'true'
p1199
ssaa(lp1200
S'robotMotor'
p1201
a(dp1202
S'build'
p1203
(dp1204
S'core'
p1205
S'robot'
p1206
sS'f_cpu'
p1207
S'16000000L'
p1208
sS'vid'
p1209
S'0x2341'
p1210
sS'pid'
p1211
S'0x8039'
p1212
sS'cppoption1'
p1213
S'-fno-use-cxa-atexit'
p1214
sS'variant'
p1215
S'robot_motor'
p1216
sS'mcu'
p1217
S'atmega32u4'
p1218
ssS'bootloader'
p1219
(dp1220
S'extended_fuses'
p1221
S'0xcb'
p1222
sS'high_fuses'
p1223
S'0xd8'
p1224
sS'low_fuses'
p1225
S'0xff'
p1226
sS'lock_bits'
p1227
S'0x2F'
p1228
sS'file'
p1229
S'Caterina-Robot-Motor.hex'
p1230
sS'path'
p1231
S'caterina-Arduino_Robot'
p1232
sS'unlock_bits'
p1233
S'0x3F'
p1234
ssS'name'
p1235
S'Arduino Robot Motor'
p1236
sS'upload'
p1237
(dp1238
S'speed'
p1239
S'57600'
p1240
sS'maximum_size'
p1241
S'28672'
p1242
sS'protocol'
p1243
S'avr109'
p1244
sS'disable_flushing'
p1245
S'true'
p1246
ssaatp1247
Rp1248
(dp1249
S'default'
p1250
S'uno'
p1251
sbtp1252
a(S'cxx'
p1253
S'/usr/bin/avr-g++'
p1254
tp1255
a.