(lp0
(S'cppflags'
p1
ccopy_reg
_reconstructor
p2
(cino.utils
SpaceList
p3
c__builtin__
list
p4
(lp5
S'-mmcu=atmega328p'
p6
aS'-DF_CPU=16000000L'
p7
aS'-DARDUINO=105'
p8
aS'-I/usr/share/arduino/hardware/arduino/cores/arduino'
p9
aS'-fno-use-cxa-atexit'
p10
aS'-ffunction-sections'
p11
aS'-fdata-sections'
p12
aS'-g'
p13
aS'-Os'
p14
aS'-w'
p15
aS'-I/usr/share/arduino/hardware/arduino/variants/standard'
p16
aS'-I/usr/share/arduino/libraries/MIDI'
p17
aS'-I/usr/share/arduino/hardware/arduino/cores/arduino'
p18
aS'-I/usr/share/arduino/hardware/arduino/cores/arduino/avr-libc'
p19
atp20
Rp21
tp22
a(S'version.txt'
p23
S'/usr/share/arduino/lib/version.txt'
p24
tp25
a(S'used_libs'
p26
(lp27
S'/usr/share/arduino/libraries/MIDI'
p28
aS'/usr/share/arduino/hardware/arduino/cores/arduino'
p29
atp30
a(S'cc'
p31
S'/usr/bin/avr-gcc'
p32
tp33
a(S'make'
p34
S'/usr/bin/make'
p35
tp36
a(S'build_dir'
p37
S'.build/atmega328'
p38
tp39
a(S'arduino_core_dir'
p40
g29
tp41
a(S'boards.txt'
p42
S'/usr/share/arduino/hardware/arduino/boards.txt'
p43
tp44
a(S'cxxflags'
p45
g2
(g3
g4
(lp46
S'-fno-exceptions'
p47
atp48
Rp49
tp50
a(S'arduino_variants_dir'
p51
S'/usr/share/arduino/hardware/arduino/variants'
p52
tp53
a(S'deps'
p54
g2
(g3
g4
(lp55
S'.build/atmega328/src/dependencies.d'
p56
aS'.build/atmega328/arduino/dependencies.d'
p57
aS'.build/atmega328/MIDI/dependencies.d'
p58
atp59
Rp60
tp61
a(S'ar'
p62
S'/usr/bin/avr-ar'
p63
tp64
a(S'names'
p65
(dp66
S'cpp'
p67
S'%s.cpp'
p68
sS'obj'
p69
S'%s.o'
p70
sg54
S'%s.d'
p71
sS'lib'
p72
S'lib%s.a'
p73
stp74
a(S'cflags'
p75
g2
(g3
g4
(lp76
tp77
Rp78
tp79
a(S'ldflags'
p80
g2
(g3
g4
(lp81
g6
aS'-Wl,-Os'
p82
aS'-Wl,--gc-sections'
p83
atp84
Rp85
tp86
a(S'arduino_libraries_dir'
p87
S'/usr/share/arduino/libraries'
p88
tp89
a(S'arduino_lib_version'
p90
g2
(cino.environment
Version
p91
c__builtin__
tuple
p92
(I1
I0
I5
tp93
tp94
Rp95
tp96
a(S'objcopy'
p97
S'/usr/bin/avr-objcopy'
p98
tp99
a(S'board_models'
p100
cino.environment
BoardModels
p101
((lp102
(lp103
S'uno'
p104
a(dp105
S'build'
p106
(dp107
S'core'
p108
S'arduino'
p109
sS'mcu'
p110
S'atmega328p'
p111
sS'cppoption1'
p112
S'-fno-use-cxa-atexit'
p113
sS'f_cpu'
p114
S'16000000L'
p115
sS'variant'
p116
S'standard'
p117
ssS'bootloader'
p118
(dp119
S'extended_fuses'
p120
S'0x05'
p121
sS'high_fuses'
p122
S'0xde'
p123
sS'low_fuses'
p124
S'0xff'
p125
sS'lock_bits'
p126
S'0x0F'
p127
sS'file'
p128
S'optiboot_atmega328.hex'
p129
sS'path'
p130
S'optiboot'
p131
sS'unlock_bits'
p132
S'0x3F'
p133
ssS'name'
p134
S'Arduino Uno'
p135
sS'upload'
p136
(dp137
S'speed'
p138
S'115200'
p139
sS'maximum_size'
p140
S'32256'
p141
sS'protocol'
p142
S'arduino'
p143
ssaa(lp144
S'atmega328'
p145
a(dp146
S'build'
p147
(dp148
S'core'
p149
S'arduino'
p150
sS'mcu'
p151
S'atmega328p'
p152
sS'cppoption1'
p153
S'-fno-use-cxa-atexit'
p154
sS'f_cpu'
p155
S'16000000L'
p156
sS'variant'
p157
S'standard'
p158
ssS'bootloader'
p159
(dp160
S'extended_fuses'
p161
S'0x05'
p162
sS'high_fuses'
p163
S'0xDA'
p164
sS'low_fuses'
p165
S'0xFF'
p166
sS'lock_bits'
p167
S'0x0F'
p168
sS'file'
p169
S'ATmegaBOOT_168_atmega328.hex'
p170
sS'path'
p171
S'atmega'
p172
sS'unlock_bits'
p173
S'0x3F'
p174
ssS'name'
p175
S'Arduino Duemilanove w/ ATmega328'
p176
sS'upload'
p177
(dp178
S'speed'
p179
S'57600'
p180
sS'maximum_size'
p181
S'30720'
p182
sS'protocol'
p183
S'arduino'
p184
ssaa(lp185
S'diecimila'
p186
a(dp187
S'build'
p188
(dp189
S'core'
p190
S'arduino'
p191
sS'mcu'
p192
S'atmega168'
p193
sS'cppoption1'
p194
S'-fno-use-cxa-atexit'
p195
sS'f_cpu'
p196
S'16000000L'
p197
sS'variant'
p198
S'standard'
p199
ssS'bootloader'
p200
(dp201
S'extended_fuses'
p202
S'0x00'
p203
sS'high_fuses'
p204
S'0xdd'
p205
sS'low_fuses'
p206
S'0xff'
p207
sS'lock_bits'
p208
S'0x0F'
p209
sS'file'
p210
S'ATmegaBOOT_168_diecimila.hex'
p211
sS'path'
p212
S'atmega'
p213
sS'unlock_bits'
p214
S'0x3F'
p215
ssS'name'
p216
S'Arduino Diecimila or Duemilanove w/ ATmega168'
p217
sS'upload'
p218
(dp219
S'speed'
p220
S'19200'
p221
sS'maximum_size'
p222
S'14336'
p223
sS'protocol'
p224
S'arduino'
p225
ssaa(lp226
S'nano328'
p227
a(dp228
S'build'
p229
(dp230
S'core'
p231
S'arduino'
p232
sS'mcu'
p233
S'atmega328p'
p234
sS'cppoption1'
p235
S'-fno-use-cxa-atexit'
p236
sS'f_cpu'
p237
S'16000000L'
p238
sS'variant'
p239
S'eightanaloginputs'
p240
ssS'bootloader'
p241
(dp242
S'extended_fuses'
p243
S'0x05'
p244
sS'high_fuses'
p245
S'0xDA'
p246
sS'low_fuses'
p247
S'0xFF'
p248
sS'lock_bits'
p249
S'0x0F'
p250
sS'file'
p251
S'ATmegaBOOT_168_atmega328.hex'
p252
sS'path'
p253
S'atmega'
p254
sS'unlock_bits'
p255
S'0x3F'
p256
ssS'name'
p257
S'Arduino Nano w/ ATmega328'
p258
sS'upload'
p259
(dp260
S'speed'
p261
S'57600'
p262
sS'maximum_size'
p263
S'30720'
p264
sS'protocol'
p265
S'arduino'
p266
ssaa(lp267
S'nano'
p268
a(dp269
S'build'
p270
(dp271
S'core'
p272
S'arduino'
p273
sS'mcu'
p274
S'atmega168'
p275
sS'cppoption1'
p276
S'-fno-use-cxa-atexit'
p277
sS'f_cpu'
p278
S'16000000L'
p279
sS'variant'
p280
S'eightanaloginputs'
p281
ssS'bootloader'
p282
(dp283
S'extended_fuses'
p284
S'0x00'
p285
sS'high_fuses'
p286
S'0xdd'
p287
sS'low_fuses'
p288
S'0xff'
p289
sS'lock_bits'
p290
S'0x0F'
p291
sS'file'
p292
S'ATmegaBOOT_168_diecimila.hex'
p293
sS'path'
p294
S'atmega'
p295
sS'unlock_bits'
p296
S'0x3F'
p297
ssS'name'
p298
S'Arduino Nano w/ ATmega168'
p299
sS'upload'
p300
(dp301
S'speed'
p302
S'19200'
p303
sS'maximum_size'
p304
S'14336'
p305
sS'protocol'
p306
S'arduino'
p307
ssaa(lp308
S'mega2560'
p309
a(dp310
S'build'
p311
(dp312
S'core'
p313
S'arduino'
p314
sS'mcu'
p315
S'atmega2560'
p316
sS'cppoption1'
p317
S'-fno-use-cxa-atexit'
p318
sS'f_cpu'
p319
S'16000000L'
p320
sS'variant'
p321
S'mega'
p322
ssS'bootloader'
p323
(dp324
S'extended_fuses'
p325
S'0xFD'
p326
sS'high_fuses'
p327
S'0xD8'
p328
sS'low_fuses'
p329
S'0xFF'
p330
sS'lock_bits'
p331
S'0x0F'
p332
sS'file'
p333
S'stk500boot_v2_mega2560.hex'
p334
sS'path'
p335
S'stk500v2'
p336
sS'unlock_bits'
p337
S'0x3F'
p338
ssS'name'
p339
S'Arduino Mega 2560 or Mega ADK'
p340
sS'upload'
p341
(dp342
S'speed'
p343
S'115200'
p344
sS'maximum_size'
p345
S'258048'
p346
sS'protocol'
p347
S'wiring'
p348
ssaa(lp349
S'mega'
p350
a(dp351
S'build'
p352
(dp353
S'core'
p354
S'arduino'
p355
sS'mcu'
p356
S'atmega1280'
p357
sS'cppoption1'
p358
S'-fno-use-cxa-atexit'
p359
sS'f_cpu'
p360
S'16000000L'
p361
sS'variant'
p362
S'mega'
p363
ssS'bootloader'
p364
(dp365
S'extended_fuses'
p366
S'0xF5'
p367
sS'high_fuses'
p368
S'0xDA'
p369
sS'low_fuses'
p370
S'0xFF'
p371
sS'lock_bits'
p372
S'0x0F'
p373
sS'file'
p374
S'ATmegaBOOT_168_atmega1280.hex'
p375
sS'path'
p376
S'atmega'
p377
sS'unlock_bits'
p378
S'0x3F'
p379
ssS'name'
p380
S'Arduino Mega (ATmega1280)'
p381
sS'upload'
p382
(dp383
S'speed'
p384
S'57600'
p385
sS'maximum_size'
p386
S'126976'
p387
sS'protocol'
p388
S'arduino'
p389
ssaa(lp390
S'leonardo'
p391
a(dp392
S'build'
p393
(dp394
S'core'
p395
S'arduino'
p396
sS'f_cpu'
p397
S'16000000L'
p398
sS'vid'
p399
S'0x2341'
p400
sS'pid'
p401
S'0x8036'
p402
sS'cppoption1'
p403
S'-fno-use-cxa-atexit'
p404
sS'variant'
p405
S'leonardo'
p406
sS'mcu'
p407
S'atmega32u4'
p408
ssS'bootloader'
p409
(dp410
S'extended_fuses'
p411
S'0xcb'
p412
sS'high_fuses'
p413
S'0xd8'
p414
sS'low_fuses'
p415
S'0xff'
p416
sS'lock_bits'
p417
S'0x2F'
p418
sS'file'
p419
S'Caterina-Leonardo.hex'
p420
sS'path'
p421
S'caterina'
p422
sS'unlock_bits'
p423
S'0x3F'
p424
ssS'name'
p425
S'Arduino Leonardo'
p426
sS'upload'
p427
(dp428
S'speed'
p429
S'57600'
p430
sS'maximum_size'
p431
S'28672'
p432
sS'protocol'
p433
S'avr109'
p434
sS'disable_flushing'
p435
S'true'
p436
ssaa(lp437
S'esplora'
p438
a(dp439
S'build'
p440
(dp441
S'core'
p442
S'arduino'
p443
sS'f_cpu'
p444
S'16000000L'
p445
sS'vid'
p446
S'0x2341'
p447
sS'pid'
p448
S'0x803C'
p449
sS'cppoption1'
p450
S'-fno-use-cxa-atexit'
p451
sS'variant'
p452
S'leonardo'
p453
sS'mcu'
p454
S'atmega32u4'
p455
ssS'bootloader'
p456
(dp457
S'extended_fuses'
p458
S'0xcb'
p459
sS'high_fuses'
p460
S'0xd8'
p461
sS'low_fuses'
p462
S'0xff'
p463
sS'lock_bits'
p464
S'0x2F'
p465
sS'file'
p466
S'Caterina-Esplora.hex'
p467
sS'path'
p468
S'caterina'
p469
sS'unlock_bits'
p470
S'0x3F'
p471
ssS'name'
p472
S'Arduino Esplora'
p473
sS'upload'
p474
(dp475
S'speed'
p476
S'57600'
p477
sS'maximum_size'
p478
S'28672'
p479
sS'protocol'
p480
S'avr109'
p481
sS'disable_flushing'
p482
S'true'
p483
ssaa(lp484
S'micro'
p485
a(dp486
S'build'
p487
(dp488
S'core'
p489
S'arduino'
p490
sS'f_cpu'
p491
S'16000000L'
p492
sS'vid'
p493
S'0x2341'
p494
sS'pid'
p495
S'0x8037'
p496
sS'cppoption1'
p497
S'-fno-use-cxa-atexit'
p498
sS'variant'
p499
S'micro'
p500
sS'mcu'
p501
S'atmega32u4'
p502
ssS'bootloader'
p503
(dp504
S'extended_fuses'
p505
S'0xcb'
p506
sS'high_fuses'
p507
S'0xd8'
p508
sS'low_fuses'
p509
S'0xff'
p510
sS'lock_bits'
p511
S'0x2F'
p512
sS'file'
p513
S'Caterina-Micro.hex'
p514
sS'path'
p515
S'caterina'
p516
sS'unlock_bits'
p517
S'0x3F'
p518
ssS'name'
p519
S'Arduino Micro'
p520
sS'upload'
p521
(dp522
S'speed'
p523
S'57600'
p524
sS'maximum_size'
p525
S'28672'
p526
sS'protocol'
p527
S'avr109'
p528
sS'disable_flushing'
p529
S'true'
p530
ssaa(lp531
S'mini328'
p532
a(dp533
S'build'
p534
(dp535
S'core'
p536
S'arduino'
p537
sS'mcu'
p538
S'atmega328p'
p539
sS'cppoption1'
p540
S'-fno-use-cxa-atexit'
p541
sS'f_cpu'
p542
S'16000000L'
p543
sS'variant'
p544
S'eightanaloginputs'
p545
ssS'bootloader'
p546
(dp547
S'extended_fuses'
p548
S'0x05'
p549
sS'high_fuses'
p550
S'0xd8'
p551
sS'low_fuses'
p552
S'0xff'
p553
sS'lock_bits'
p554
S'0x0F'
p555
sS'file'
p556
S'optiboot_atmega328-Mini.hex'
p557
sS'path'
p558
S'optiboot'
p559
sS'unlock_bits'
p560
S'0x3F'
p561
ssS'name'
p562
S'Arduino Mini w/ ATmega328'
p563
sS'upload'
p564
(dp565
S'speed'
p566
S'115200'
p567
sS'maximum_size'
p568
S'28672'
p569
sS'protocol'
p570
S'arduino'
p571
ssaa(lp572
S'mini'
p573
a(dp574
S'build'
p575
(dp576
S'core'
p577
S'arduino'
p578
sS'mcu'
p579
S'atmega168'
p580
sS'cppoption1'
p581
S'-fno-use-cxa-atexit'
p582
sS'f_cpu'
p583
S'16000000L'
p584
sS'variant'
p585
S'eightanaloginputs'
p586
ssS'bootloader'
p587
(dp588
S'extended_fuses'
p589
S'0x00'
p590
sS'high_fuses'
p591
S'0xdd'
p592
sS'low_fuses'
p593
S'0xff'
p594
sS'lock_bits'
p595
S'0x0F'
p596
sS'file'
p597
S'ATmegaBOOT_168_ng.hex'
p598
sS'path'
p599
S'atmega'
p600
sS'unlock_bits'
p601
S'0x3F'
p602
ssS'name'
p603
S'Arduino Mini w/ ATmega168'
p604
sS'upload'
p605
(dp606
S'speed'
p607
S'19200'
p608
sS'maximum_size'
p609
S'14336'
p610
sS'protocol'
p611
S'arduino'
p612
ssaa(lp613
S'ethernet'
p614
a(dp615
S'build'
p616
(dp617
S'f_cpu'
p618
S'16000000L'
p619
sS'mcu'
p620
S'atmega328p'
p621
sS'cppoption1'
p622
S'-fno-use-cxa-atexit'
p623
sS'variant'
p624
S'standard'
p625
sS'core'
p626
S'arduino'
p627
ssS'bootloader'
p628
(dp629
S'extended_fuses'
p630
S'0x05'
p631
sS'high_fuses'
p632
S'0xde'
p633
sS'low_fuses'
p634
S'0xff'
p635
sS'lock_bits'
p636
S'0x0F'
p637
sS'file'
p638
S'optiboot_atmega328.hex'
p639
sS'path'
p640
S'optiboot'
p641
sS'unlock_bits'
p642
S'0x3F'
p643
ssS'name'
p644
S'Arduino Ethernet'
p645
sS'upload'
p646
(dp647
S'speed'
p648
S'115200'
p649
sS'maximum_size'
p650
S'32256'
p651
sS'protocol'
p652
S'arduino'
p653
ssaa(lp654
S'fio'
p655
a(dp656
S'build'
p657
(dp658
S'core'
p659
S'arduino'
p660
sS'mcu'
p661
S'atmega328p'
p662
sS'cppoption1'
p663
S'-fno-use-cxa-atexit'
p664
sS'f_cpu'
p665
S'8000000L'
p666
sS'variant'
p667
S'eightanaloginputs'
p668
ssS'bootloader'
p669
(dp670
S'extended_fuses'
p671
S'0x05'
p672
sS'high_fuses'
p673
S'0xDA'
p674
sS'low_fuses'
p675
S'0xFF'
p676
sS'lock_bits'
p677
S'0x0F'
p678
sS'file'
p679
S'ATmegaBOOT_168_atmega328_pro_8MHz.hex'
p680
sS'path'
p681
S'arduino:atmega'
p682
sS'unlock_bits'
p683
S'0x3F'
p684
ssS'name'
p685
S'Arduino Fio'
p686
sS'upload'
p687
(dp688
S'speed'
p689
S'57600'
p690
sS'maximum_size'
p691
S'30720'
p692
sS'protocol'
p693
S'arduino'
p694
ssaa(lp695
S'bt328'
p696
a(dp697
S'build'
p698
(dp699
S'core'
p700
S'arduino'
p701
sS'mcu'
p702
S'atmega328p'
p703
sS'cppoption1'
p704
S'-fno-use-cxa-atexit'
p705
sS'f_cpu'
p706
S'16000000L'
p707
sS'variant'
p708
S'eightanaloginputs'
p709
ssS'bootloader'
p710
(dp711
S'extended_fuses'
p712
S'0x05'
p713
sS'high_fuses'
p714
S'0xd8'
p715
sS'low_fuses'
p716
S'0xff'
p717
sS'lock_bits'
p718
S'0x0F'
p719
sS'file'
p720
S'ATmegaBOOT_168_atmega328_bt.hex'
p721
sS'path'
p722
S'bt'
p723
sS'unlock_bits'
p724
S'0x3F'
p725
ssS'name'
p726
S'Arduino BT w/ ATmega328'
p727
sS'upload'
p728
(dp729
S'speed'
p730
S'19200'
p731
sS'maximum_size'
p732
S'28672'
p733
sS'protocol'
p734
S'arduino'
p735
sS'disable_flushing'
p736
S'true'
p737
ssaa(lp738
S'bt'
p739
a(dp740
S'build'
p741
(dp742
S'core'
p743
S'arduino'
p744
sS'mcu'
p745
S'atmega168'
p746
sS'cppoption1'
p747
S'-fno-use-cxa-atexit'
p748
sS'f_cpu'
p749
S'16000000L'
p750
sS'variant'
p751
S'eightanaloginputs'
p752
ssS'bootloader'
p753
(dp754
S'extended_fuses'
p755
S'0x00'
p756
sS'high_fuses'
p757
S'0xdd'
p758
sS'low_fuses'
p759
S'0xff'
p760
sS'lock_bits'
p761
S'0x0F'
p762
sS'file'
p763
S'ATmegaBOOT_168.hex'
p764
sS'path'
p765
S'bt'
p766
sS'unlock_bits'
p767
S'0x3F'
p768
ssS'name'
p769
S'Arduino BT w/ ATmega168'
p770
sS'upload'
p771
(dp772
S'speed'
p773
S'19200'
p774
sS'maximum_size'
p775
S'14336'
p776
sS'protocol'
p777
S'arduino'
p778
sS'disable_flushing'
p779
S'true'
p780
ssaa(lp781
S'LilyPadUSB'
p782
a(dp783
S'build'
p784
(dp785
S'core'
p786
S'arduino'
p787
sS'f_cpu'
p788
S'8000000L'
p789
sS'vid'
p790
S'0x1B4F'
p791
sS'pid'
p792
S'0x9208'
p793
sS'cppoption1'
p794
S'-fno-use-cxa-atexit'
p795
sS'variant'
p796
S'leonardo'
p797
sS'mcu'
p798
S'atmega32u4'
p799
ssS'bootloader'
p800
(dp801
S'extended_fuses'
p802
S'0xce'
p803
sS'high_fuses'
p804
S'0xd8'
p805
sS'low_fuses'
p806
S'0xff'
p807
sS'lock_bits'
p808
S'0x2F'
p809
sS'file'
p810
S'Caterina-LilyPadUSB.hex'
p811
sS'path'
p812
S'caterina-LilyPadUSB'
p813
sS'unlock_bits'
p814
S'0x3F'
p815
ssS'name'
p816
S'LilyPad Arduino USB'
p817
sS'upload'
p818
(dp819
S'speed'
p820
S'57600'
p821
sS'maximum_size'
p822
S'28672'
p823
sS'protocol'
p824
S'avr109'
p825
sS'disable_flushing'
p826
S'true'
p827
ssaa(lp828
S'lilypad328'
p829
a(dp830
S'build'
p831
(dp832
S'core'
p833
S'arduino'
p834
sS'mcu'
p835
S'atmega328p'
p836
sS'cppoption1'
p837
S'-fno-use-cxa-atexit'
p838
sS'f_cpu'
p839
S'8000000L'
p840
sS'variant'
p841
S'standard'
p842
ssS'bootloader'
p843
(dp844
S'extended_fuses'
p845
S'0x05'
p846
sS'high_fuses'
p847
S'0xDA'
p848
sS'low_fuses'
p849
S'0xFF'
p850
sS'lock_bits'
p851
S'0x0F'
p852
sS'file'
p853
S'ATmegaBOOT_168_atmega328_pro_8MHz.hex'
p854
sS'path'
p855
S'atmega'
p856
sS'unlock_bits'
p857
S'0x3F'
p858
ssS'name'
p859
S'LilyPad Arduino w/ ATmega328'
p860
sS'upload'
p861
(dp862
S'speed'
p863
S'57600'
p864
sS'maximum_size'
p865
S'30720'
p866
sS'protocol'
p867
S'arduino'
p868
ssaa(lp869
S'lilypad'
p870
a(dp871
S'build'
p872
(dp873
S'core'
p874
S'arduino'
p875
sS'mcu'
p876
S'atmega168'
p877
sS'cppoption1'
p878
S'-fno-use-cxa-atexit'
p879
sS'f_cpu'
p880
S'8000000L'
p881
sS'variant'
p882
S'standard'
p883
ssS'bootloader'
p884
(dp885
S'extended_fuses'
p886
S'0x00'
p887
sS'high_fuses'
p888
S'0xdd'
p889
sS'low_fuses'
p890
S'0xe2'
p891
sS'lock_bits'
p892
S'0x0F'
p893
sS'file'
p894
S'LilyPadBOOT_168.hex'
p895
sS'path'
p896
S'lilypad'
p897
sS'unlock_bits'
p898
S'0x3F'
p899
ssS'name'
p900
S'LilyPad Arduino w/ ATmega168'
p901
sS'upload'
p902
(dp903
S'speed'
p904
S'19200'
p905
sS'maximum_size'
p906
S'14336'
p907
sS'protocol'
p908
S'arduino'
p909
ssaa(lp910
S'pro5v328'
p911
a(dp912
S'build'
p913
(dp914
S'core'
p915
S'arduino'
p916
sS'mcu'
p917
S'atmega328p'
p918
sS'cppoption1'
p919
S'-fno-use-cxa-atexit'
p920
sS'f_cpu'
p921
S'16000000L'
p922
sS'variant'
p923
S'standard'
p924
ssS'bootloader'
p925
(dp926
S'extended_fuses'
p927
S'0x05'
p928
sS'high_fuses'
p929
S'0xDA'
p930
sS'low_fuses'
p931
S'0xFF'
p932
sS'lock_bits'
p933
S'0x0F'
p934
sS'file'
p935
S'ATmegaBOOT_168_atmega328.hex'
p936
sS'path'
p937
S'atmega'
p938
sS'unlock_bits'
p939
S'0x3F'
p940
ssS'name'
p941
S'Arduino Pro or Pro Mini (5V, 16 MHz) w/ ATmega328'
p942
sS'upload'
p943
(dp944
S'speed'
p945
S'57600'
p946
sS'maximum_size'
p947
S'30720'
p948
sS'protocol'
p949
S'arduino'
p950
ssaa(lp951
S'pro5v'
p952
a(dp953
S'build'
p954
(dp955
S'core'
p956
S'arduino'
p957
sS'mcu'
p958
S'atmega168'
p959
sS'cppoption1'
p960
S'-fno-use-cxa-atexit'
p961
sS'f_cpu'
p962
S'16000000L'
p963
sS'variant'
p964
S'standard'
p965
ssS'bootloader'
p966
(dp967
S'extended_fuses'
p968
S'0x00'
p969
sS'high_fuses'
p970
S'0xdd'
p971
sS'low_fuses'
p972
S'0xff'
p973
sS'lock_bits'
p974
S'0x0F'
p975
sS'file'
p976
S'ATmegaBOOT_168_diecimila.hex'
p977
sS'path'
p978
S'atmega'
p979
sS'unlock_bits'
p980
S'0x3F'
p981
ssS'name'
p982
S'Arduino Pro or Pro Mini (5V, 16 MHz) w/ ATmega168'
p983
sS'upload'
p984
(dp985
S'speed'
p986
S'19200'
p987
sS'maximum_size'
p988
S'14336'
p989
sS'protocol'
p990
S'arduino'
p991
ssaa(lp992
S'pro328'
p993
a(dp994
S'build'
p995
(dp996
S'core'
p997
S'arduino'
p998
sS'mcu'
p999
S'atmega328p'
p1000
sS'cppoption1'
p1001
S'-fno-use-cxa-atexit'
p1002
sS'f_cpu'
p1003
S'8000000L'
p1004
sS'variant'
p1005
S'standard'
p1006
ssS'bootloader'
p1007
(dp1008
S'extended_fuses'
p1009
S'0x05'
p1010
sS'high_fuses'
p1011
S'0xDA'
p1012
sS'low_fuses'
p1013
S'0xFF'
p1014
sS'lock_bits'
p1015
S'0x0F'
p1016
sS'file'
p1017
S'ATmegaBOOT_168_atmega328_pro_8MHz.hex'
p1018
sS'path'
p1019
S'atmega'
p1020
sS'unlock_bits'
p1021
S'0x3F'
p1022
ssS'name'
p1023
S'Arduino Pro or Pro Mini (3.3V, 8 MHz) w/ ATmega328'
p1024
sS'upload'
p1025
(dp1026
S'speed'
p1027
S'57600'
p1028
sS'maximum_size'
p1029
S'30720'
p1030
sS'protocol'
p1031
S'arduino'
p1032
ssaa(lp1033
S'pro'
p1034
a(dp1035
S'build'
p1036
(dp1037
S'core'
p1038
S'arduino'
p1039
sS'mcu'
p1040
S'atmega168'
p1041
sS'cppoption1'
p1042
S'-fno-use-cxa-atexit'
p1043
sS'f_cpu'
p1044
S'8000000L'
p1045
sS'variant'
p1046
S'standard'
p1047
ssS'bootloader'
p1048
(dp1049
S'extended_fuses'
p1050
S'0x00'
p1051
sS'high_fuses'
p1052
S'0xdd'
p1053
sS'low_fuses'
p1054
S'0xc6'
p1055
sS'lock_bits'
p1056
S'0x0F'
p1057
sS'file'
p1058
S'ATmegaBOOT_168_pro_8MHz.hex'
p1059
sS'path'
p1060
S'atmega'
p1061
sS'unlock_bits'
p1062
S'0x3F'
p1063
ssS'name'
p1064
S'Arduino Pro or Pro Mini (3.3V, 8 MHz) w/ ATmega168'
p1065
sS'upload'
p1066
(dp1067
S'speed'
p1068
S'19200'
p1069
sS'maximum_size'
p1070
S'14336'
p1071
sS'protocol'
p1072
S'arduino'
p1073
ssaa(lp1074
S'atmega168'
p1075
a(dp1076
S'build'
p1077
(dp1078
S'core'
p1079
S'arduino'
p1080
sS'mcu'
p1081
S'atmega168'
p1082
sS'cppoption1'
p1083
S'-fno-use-cxa-atexit'
p1084
sS'f_cpu'
p1085
S'16000000L'
p1086
sS'variant'
p1087
S'standard'
p1088
ssS'bootloader'
p1089
(dp1090
S'extended_fuses'
p1091
S'0x00'
p1092
sS'high_fuses'
p1093
S'0xdd'
p1094
sS'low_fuses'
p1095
S'0xff'
p1096
sS'lock_bits'
p1097
S'0x0F'
p1098
sS'file'
p1099
S'ATmegaBOOT_168_ng.hex'
p1100
sS'path'
p1101
S'atmega'
p1102
sS'unlock_bits'
p1103
S'0x3F'
p1104
ssS'name'
p1105
S'Arduino NG or older w/ ATmega168'
p1106
sS'upload'
p1107
(dp1108
S'speed'
p1109
S'19200'
p1110
sS'maximum_size'
p1111
S'14336'
p1112
sS'protocol'
p1113
S'arduino'
p1114
ssaa(lp1115
S'atmega8'
p1116
a(dp1117
S'build'
p1118
(dp1119
S'core'
p1120
S'arduino'
p1121
sS'mcu'
p1122
S'atmega8'
p1123
sS'cppoption1'
p1124
S'-fno-use-cxa-atexit'
p1125
sS'f_cpu'
p1126
S'16000000L'
p1127
sS'variant'
p1128
S'standard'
p1129
ssS'bootloader'
p1130
(dp1131
S'high_fuses'
p1132
S'0xca'
p1133
sS'low_fuses'
p1134
S'0xdf'
p1135
sS'lock_bits'
p1136
S'0x0F'
p1137
sS'file'
p1138
S'ATmegaBOOT-prod-firmware-2009-11-07.hex'
p1139
sS'path'
p1140
S'atmega8'
p1141
sS'unlock_bits'
p1142
S'0x3F'
p1143
ssS'name'
p1144
S'Arduino NG or older w/ ATmega8'
p1145
sS'upload'
p1146
(dp1147
S'speed'
p1148
S'19200'
p1149
sS'maximum_size'
p1150
S'7168'
p1151
sS'protocol'
p1152
S'arduino'
p1153
ssaa(lp1154
S'robotControl'
p1155
a(dp1156
S'build'
p1157
(dp1158
S'core'
p1159
S'robot'
p1160
sS'f_cpu'
p1161
S'16000000L'
p1162
sS'vid'
p1163
S'0x2341'
p1164
sS'pid'
p1165
S'0x8038'
p1166
sS'cppoption1'
p1167
S'-fno-use-cxa-atexit'
p1168
sS'variant'
p1169
S'robot_control'
p1170
sS'mcu'
p1171
S'atmega32u4'
p1172
ssS'bootloader'
p1173
(dp1174
S'extended_fuses'
p1175
S'0xcb'
p1176
sS'high_fuses'
p1177
S'0xd8'
p1178
sS'low_fuses'
p1179
S'0xff'
p1180
sS'lock_bits'
p1181
S'0x2F'
p1182
sS'file'
p1183
S'Caterina-Robot-Control.hex'
p1184
sS'path'
p1185
S'caterina-Arduino_Robot'
p1186
sS'unlock_bits'
p1187
S'0x3F'
p1188
ssS'name'
p1189
S'Arduino Robot Control'
p1190
sS'upload'
p1191
(dp1192
S'speed'
p1193
S'57600'
p1194
sS'maximum_size'
p1195
S'28672'
p1196
sS'protocol'
p1197
S'avr109'
p1198
sS'disable_flushing'
p1199
S'true'
p1200
ssaa(lp1201
S'robotMotor'
p1202
a(dp1203
S'build'
p1204
(dp1205
S'core'
p1206
S'robot'
p1207
sS'f_cpu'
p1208
S'16000000L'
p1209
sS'vid'
p1210
S'0x2341'
p1211
sS'pid'
p1212
S'0x8039'
p1213
sS'cppoption1'
p1214
S'-fno-use-cxa-atexit'
p1215
sS'variant'
p1216
S'robot_motor'
p1217
sS'mcu'
p1218
S'atmega32u4'
p1219
ssS'bootloader'
p1220
(dp1221
S'extended_fuses'
p1222
S'0xcb'
p1223
sS'high_fuses'
p1224
S'0xd8'
p1225
sS'low_fuses'
p1226
S'0xff'
p1227
sS'lock_bits'
p1228
S'0x2F'
p1229
sS'file'
p1230
S'Caterina-Robot-Motor.hex'
p1231
sS'path'
p1232
S'caterina-Arduino_Robot'
p1233
sS'unlock_bits'
p1234
S'0x3F'
p1235
ssS'name'
p1236
S'Arduino Robot Motor'
p1237
sS'upload'
p1238
(dp1239
S'speed'
p1240
S'57600'
p1241
sS'maximum_size'
p1242
S'28672'
p1243
sS'protocol'
p1244
S'avr109'
p1245
sS'disable_flushing'
p1246
S'true'
p1247
ssaatp1248
Rp1249
(dp1250
S'default'
p1251
S'uno'
p1252
sbtp1253
a(S'cxx'
p1254
S'/usr/bin/avr-g++'
p1255
tp1256
a.