(lp0
(S'cppflags'
p1
ccopy_reg
_reconstructor
p2
(cino.utils
SpaceList
p3
c__builtin__
list
p4
(lp5
S'-mmcu=atmega328p'
p6
aS'-DF_CPU=16000000L'
p7
aS'-DARDUINO=105'
p8
aS'-I/usr/share/arduino/hardware/arduino/cores/arduino'
p9
aS'-fno-use-cxa-atexit'
p10
aS'-ffunction-sections'
p11
aS'-fdata-sections'
p12
aS'-g'
p13
aS'-Os'
p14
aS'-w'
p15
aS'-I/usr/share/arduino/hardware/arduino/variants/standard'
p16
aS'-I/usr/share/arduino/libraries/MIDI'
p17
aS'-I/usr/share/arduino/hardware/arduino/cores/arduino'
p18
aS'-I/usr/share/arduino/hardware/arduino/cores/arduino/avr-libc'
p19
atp20
Rp21
tp22
a(S'arduino_variants_dir'
p23
S'/usr/share/arduino/hardware/arduino/variants'
p24
tp25
a(S'version.txt'
p26
S'/usr/share/arduino/lib/version.txt'
p27
tp28
a(S'used_libs'
p29
(lp30
S'/usr/share/arduino/libraries/MIDI'
p31
aS'/usr/share/arduino/hardware/arduino/cores/arduino'
p32
atp33
a(S'cc'
p34
S'/usr/bin/avr-gcc'
p35
tp36
a(S'make'
p37
S'/usr/bin/make'
p38
tp39
a(S'cflags'
p40
g2
(g3
g4
(lp41
tp42
Rp43
tp44
a(S'build_dir'
p45
S'.build/atmega328'
p46
tp47
a(S'arduino_core_dir'
p48
g32
tp49
a(S'boards.txt'
p50
S'/usr/share/arduino/hardware/arduino/boards.txt'
p51
tp52
a(S'cxxflags'
p53
g2
(g3
g4
(lp54
S'-fno-exceptions'
p55
atp56
Rp57
tp58
a(S'cxx'
p59
S'/usr/bin/avr-g++'
p60
tp61
a(S'ar'
p62
S'/usr/bin/avr-ar'
p63
tp64
a(S'names'
p65
(dp66
S'cpp'
p67
S'%s.cpp'
p68
sS'obj'
p69
S'%s.o'
p70
sS'deps'
p71
S'%s.d'
p72
sS'lib'
p73
S'lib%s.a'
p74
stp75
a(S'deps'
p76
g2
(g3
g4
(lp77
S'.build/atmega328/src/dependencies.d'
p78
aS'.build/atmega328/arduino/dependencies.d'
p79
aS'.build/atmega328/MIDI/dependencies.d'
p80
atp81
Rp82
tp83
a(S'arduino_libraries_dir'
p84
S'/usr/share/arduino/libraries'
p85
tp86
a(S'arduino_lib_version'
p87
g2
(cino.environment
Version
p88
c__builtin__
tuple
p89
(I1
I0
I5
tp90
tp91
Rp92
tp93
a(S'objcopy'
p94
S'/usr/bin/avr-objcopy'
p95
tp96
a(S'board_models'
p97
cino.environment
BoardModels
p98
((lp99
(lp100
S'uno'
p101
a(dp102
S'bootloader'
p103
(dp104
S'extended_fuses'
p105
S'0x05'
p106
sS'high_fuses'
p107
S'0xde'
p108
sS'low_fuses'
p109
S'0xff'
p110
sS'lock_bits'
p111
S'0x0F'
p112
sS'file'
p113
S'optiboot_atmega328.hex'
p114
sS'path'
p115
S'optiboot'
p116
sS'unlock_bits'
p117
S'0x3F'
p118
ssS'upload'
p119
(dp120
S'protocol'
p121
S'arduino'
p122
sS'maximum_size'
p123
S'32256'
p124
sS'speed'
p125
S'115200'
p126
ssS'build'
p127
(dp128
S'core'
p129
S'arduino'
p130
sS'mcu'
p131
S'atmega328p'
p132
sS'cppoption1'
p133
S'-fno-use-cxa-atexit'
p134
sS'f_cpu'
p135
S'16000000L'
p136
sS'variant'
p137
S'standard'
p138
ssS'name'
p139
S'Arduino Uno'
p140
saa(lp141
S'atmega328'
p142
a(dp143
S'bootloader'
p144
(dp145
S'extended_fuses'
p146
S'0x05'
p147
sS'high_fuses'
p148
S'0xDA'
p149
sS'low_fuses'
p150
S'0xFF'
p151
sS'lock_bits'
p152
S'0x0F'
p153
sS'file'
p154
S'ATmegaBOOT_168_atmega328.hex'
p155
sS'path'
p156
S'atmega'
p157
sS'unlock_bits'
p158
S'0x3F'
p159
ssS'upload'
p160
(dp161
S'protocol'
p162
S'arduino'
p163
sS'maximum_size'
p164
S'30720'
p165
sS'speed'
p166
S'57600'
p167
ssS'build'
p168
(dp169
S'core'
p170
S'arduino'
p171
sS'mcu'
p172
S'atmega328p'
p173
sS'cppoption1'
p174
S'-fno-use-cxa-atexit'
p175
sS'f_cpu'
p176
S'16000000L'
p177
sS'variant'
p178
S'standard'
p179
ssS'name'
p180
S'Arduino Duemilanove w/ ATmega328'
p181
saa(lp182
S'diecimila'
p183
a(dp184
S'bootloader'
p185
(dp186
S'extended_fuses'
p187
S'0x00'
p188
sS'high_fuses'
p189
S'0xdd'
p190
sS'low_fuses'
p191
S'0xff'
p192
sS'lock_bits'
p193
S'0x0F'
p194
sS'file'
p195
S'ATmegaBOOT_168_diecimila.hex'
p196
sS'path'
p197
S'atmega'
p198
sS'unlock_bits'
p199
S'0x3F'
p200
ssS'upload'
p201
(dp202
S'protocol'
p203
S'arduino'
p204
sS'maximum_size'
p205
S'14336'
p206
sS'speed'
p207
S'19200'
p208
ssS'build'
p209
(dp210
S'core'
p211
S'arduino'
p212
sS'mcu'
p213
S'atmega168'
p214
sS'cppoption1'
p215
S'-fno-use-cxa-atexit'
p216
sS'f_cpu'
p217
S'16000000L'
p218
sS'variant'
p219
S'standard'
p220
ssS'name'
p221
S'Arduino Diecimila or Duemilanove w/ ATmega168'
p222
saa(lp223
S'nano328'
p224
a(dp225
S'bootloader'
p226
(dp227
S'extended_fuses'
p228
S'0x05'
p229
sS'high_fuses'
p230
S'0xDA'
p231
sS'low_fuses'
p232
S'0xFF'
p233
sS'lock_bits'
p234
S'0x0F'
p235
sS'file'
p236
S'ATmegaBOOT_168_atmega328.hex'
p237
sS'path'
p238
S'atmega'
p239
sS'unlock_bits'
p240
S'0x3F'
p241
ssS'upload'
p242
(dp243
S'protocol'
p244
S'arduino'
p245
sS'maximum_size'
p246
S'30720'
p247
sS'speed'
p248
S'57600'
p249
ssS'build'
p250
(dp251
S'core'
p252
S'arduino'
p253
sS'mcu'
p254
S'atmega328p'
p255
sS'cppoption1'
p256
S'-fno-use-cxa-atexit'
p257
sS'f_cpu'
p258
S'16000000L'
p259
sS'variant'
p260
S'eightanaloginputs'
p261
ssS'name'
p262
S'Arduino Nano w/ ATmega328'
p263
saa(lp264
S'nano'
p265
a(dp266
S'bootloader'
p267
(dp268
S'extended_fuses'
p269
S'0x00'
p270
sS'high_fuses'
p271
S'0xdd'
p272
sS'low_fuses'
p273
S'0xff'
p274
sS'lock_bits'
p275
S'0x0F'
p276
sS'file'
p277
S'ATmegaBOOT_168_diecimila.hex'
p278
sS'path'
p279
S'atmega'
p280
sS'unlock_bits'
p281
S'0x3F'
p282
ssS'upload'
p283
(dp284
S'protocol'
p285
S'arduino'
p286
sS'maximum_size'
p287
S'14336'
p288
sS'speed'
p289
S'19200'
p290
ssS'build'
p291
(dp292
S'core'
p293
S'arduino'
p294
sS'mcu'
p295
S'atmega168'
p296
sS'cppoption1'
p297
S'-fno-use-cxa-atexit'
p298
sS'f_cpu'
p299
S'16000000L'
p300
sS'variant'
p301
S'eightanaloginputs'
p302
ssS'name'
p303
S'Arduino Nano w/ ATmega168'
p304
saa(lp305
S'mega2560'
p306
a(dp307
S'bootloader'
p308
(dp309
S'extended_fuses'
p310
S'0xFD'
p311
sS'high_fuses'
p312
S'0xD8'
p313
sS'low_fuses'
p314
S'0xFF'
p315
sS'lock_bits'
p316
S'0x0F'
p317
sS'file'
p318
S'stk500boot_v2_mega2560.hex'
p319
sS'path'
p320
S'stk500v2'
p321
sS'unlock_bits'
p322
S'0x3F'
p323
ssS'upload'
p324
(dp325
S'protocol'
p326
S'wiring'
p327
sS'maximum_size'
p328
S'258048'
p329
sS'speed'
p330
S'115200'
p331
ssS'build'
p332
(dp333
S'core'
p334
S'arduino'
p335
sS'mcu'
p336
S'atmega2560'
p337
sS'cppoption1'
p338
S'-fno-use-cxa-atexit'
p339
sS'f_cpu'
p340
S'16000000L'
p341
sS'variant'
p342
S'mega'
p343
ssS'name'
p344
S'Arduino Mega 2560 or Mega ADK'
p345
saa(lp346
S'mega'
p347
a(dp348
S'bootloader'
p349
(dp350
S'extended_fuses'
p351
S'0xF5'
p352
sS'high_fuses'
p353
S'0xDA'
p354
sS'low_fuses'
p355
S'0xFF'
p356
sS'lock_bits'
p357
S'0x0F'
p358
sS'file'
p359
S'ATmegaBOOT_168_atmega1280.hex'
p360
sS'path'
p361
S'atmega'
p362
sS'unlock_bits'
p363
S'0x3F'
p364
ssS'upload'
p365
(dp366
S'protocol'
p367
S'arduino'
p368
sS'maximum_size'
p369
S'126976'
p370
sS'speed'
p371
S'57600'
p372
ssS'build'
p373
(dp374
S'core'
p375
S'arduino'
p376
sS'mcu'
p377
S'atmega1280'
p378
sS'cppoption1'
p379
S'-fno-use-cxa-atexit'
p380
sS'f_cpu'
p381
S'16000000L'
p382
sS'variant'
p383
S'mega'
p384
ssS'name'
p385
S'Arduino Mega (ATmega1280)'
p386
saa(lp387
S'leonardo'
p388
a(dp389
S'bootloader'
p390
(dp391
S'extended_fuses'
p392
S'0xcb'
p393
sS'high_fuses'
p394
S'0xd8'
p395
sS'low_fuses'
p396
S'0xff'
p397
sS'lock_bits'
p398
S'0x2F'
p399
sS'file'
p400
S'Caterina-Leonardo.hex'
p401
sS'path'
p402
S'caterina'
p403
sS'unlock_bits'
p404
S'0x3F'
p405
ssS'upload'
p406
(dp407
S'protocol'
p408
S'avr109'
p409
sS'maximum_size'
p410
S'28672'
p411
sS'speed'
p412
S'57600'
p413
sS'disable_flushing'
p414
S'true'
p415
ssS'build'
p416
(dp417
S'core'
p418
S'arduino'
p419
sS'f_cpu'
p420
S'16000000L'
p421
sS'vid'
p422
S'0x2341'
p423
sS'pid'
p424
S'0x8036'
p425
sS'cppoption1'
p426
S'-fno-use-cxa-atexit'
p427
sS'variant'
p428
S'leonardo'
p429
sS'mcu'
p430
S'atmega32u4'
p431
ssS'name'
p432
S'Arduino Leonardo'
p433
saa(lp434
S'esplora'
p435
a(dp436
S'bootloader'
p437
(dp438
S'extended_fuses'
p439
S'0xcb'
p440
sS'high_fuses'
p441
S'0xd8'
p442
sS'low_fuses'
p443
S'0xff'
p444
sS'lock_bits'
p445
S'0x2F'
p446
sS'file'
p447
S'Caterina-Esplora.hex'
p448
sS'path'
p449
S'caterina'
p450
sS'unlock_bits'
p451
S'0x3F'
p452
ssS'upload'
p453
(dp454
S'protocol'
p455
S'avr109'
p456
sS'maximum_size'
p457
S'28672'
p458
sS'speed'
p459
S'57600'
p460
sS'disable_flushing'
p461
S'true'
p462
ssS'build'
p463
(dp464
S'core'
p465
S'arduino'
p466
sS'f_cpu'
p467
S'16000000L'
p468
sS'vid'
p469
S'0x2341'
p470
sS'pid'
p471
S'0x803C'
p472
sS'cppoption1'
p473
S'-fno-use-cxa-atexit'
p474
sS'variant'
p475
S'leonardo'
p476
sS'mcu'
p477
S'atmega32u4'
p478
ssS'name'
p479
S'Arduino Esplora'
p480
saa(lp481
S'micro'
p482
a(dp483
S'bootloader'
p484
(dp485
S'extended_fuses'
p486
S'0xcb'
p487
sS'high_fuses'
p488
S'0xd8'
p489
sS'low_fuses'
p490
S'0xff'
p491
sS'lock_bits'
p492
S'0x2F'
p493
sS'file'
p494
S'Caterina-Micro.hex'
p495
sS'path'
p496
S'caterina'
p497
sS'unlock_bits'
p498
S'0x3F'
p499
ssS'upload'
p500
(dp501
S'protocol'
p502
S'avr109'
p503
sS'maximum_size'
p504
S'28672'
p505
sS'speed'
p506
S'57600'
p507
sS'disable_flushing'
p508
S'true'
p509
ssS'build'
p510
(dp511
S'core'
p512
S'arduino'
p513
sS'f_cpu'
p514
S'16000000L'
p515
sS'vid'
p516
S'0x2341'
p517
sS'pid'
p518
S'0x8037'
p519
sS'cppoption1'
p520
S'-fno-use-cxa-atexit'
p521
sS'variant'
p522
S'micro'
p523
sS'mcu'
p524
S'atmega32u4'
p525
ssS'name'
p526
S'Arduino Micro'
p527
saa(lp528
S'mini328'
p529
a(dp530
S'bootloader'
p531
(dp532
S'extended_fuses'
p533
S'0x05'
p534
sS'high_fuses'
p535
S'0xd8'
p536
sS'low_fuses'
p537
S'0xff'
p538
sS'lock_bits'
p539
S'0x0F'
p540
sS'file'
p541
S'optiboot_atmega328-Mini.hex'
p542
sS'path'
p543
S'optiboot'
p544
sS'unlock_bits'
p545
S'0x3F'
p546
ssS'upload'
p547
(dp548
S'protocol'
p549
S'arduino'
p550
sS'maximum_size'
p551
S'28672'
p552
sS'speed'
p553
S'115200'
p554
ssS'build'
p555
(dp556
S'core'
p557
S'arduino'
p558
sS'mcu'
p559
S'atmega328p'
p560
sS'cppoption1'
p561
S'-fno-use-cxa-atexit'
p562
sS'f_cpu'
p563
S'16000000L'
p564
sS'variant'
p565
S'eightanaloginputs'
p566
ssS'name'
p567
S'Arduino Mini w/ ATmega328'
p568
saa(lp569
S'mini'
p570
a(dp571
S'bootloader'
p572
(dp573
S'extended_fuses'
p574
S'0x00'
p575
sS'high_fuses'
p576
S'0xdd'
p577
sS'low_fuses'
p578
S'0xff'
p579
sS'lock_bits'
p580
S'0x0F'
p581
sS'file'
p582
S'ATmegaBOOT_168_ng.hex'
p583
sS'path'
p584
S'atmega'
p585
sS'unlock_bits'
p586
S'0x3F'
p587
ssS'upload'
p588
(dp589
S'protocol'
p590
S'arduino'
p591
sS'maximum_size'
p592
S'14336'
p593
sS'speed'
p594
S'19200'
p595
ssS'build'
p596
(dp597
S'core'
p598
S'arduino'
p599
sS'mcu'
p600
S'atmega168'
p601
sS'cppoption1'
p602
S'-fno-use-cxa-atexit'
p603
sS'f_cpu'
p604
S'16000000L'
p605
sS'variant'
p606
S'eightanaloginputs'
p607
ssS'name'
p608
S'Arduino Mini w/ ATmega168'
p609
saa(lp610
S'ethernet'
p611
a(dp612
S'bootloader'
p613
(dp614
S'extended_fuses'
p615
S'0x05'
p616
sS'high_fuses'
p617
S'0xde'
p618
sS'low_fuses'
p619
S'0xff'
p620
sS'lock_bits'
p621
S'0x0F'
p622
sS'file'
p623
S'optiboot_atmega328.hex'
p624
sS'path'
p625
S'optiboot'
p626
sS'unlock_bits'
p627
S'0x3F'
p628
ssS'upload'
p629
(dp630
S'protocol'
p631
S'arduino'
p632
sS'maximum_size'
p633
S'32256'
p634
sS'speed'
p635
S'115200'
p636
ssS'build'
p637
(dp638
S'variant'
p639
S'standard'
p640
sS'mcu'
p641
S'atmega328p'
p642
sS'cppoption1'
p643
S'-fno-use-cxa-atexit'
p644
sS'f_cpu'
p645
S'16000000L'
p646
sS'core'
p647
S'arduino'
p648
ssS'name'
p649
S'Arduino Ethernet'
p650
saa(lp651
S'fio'
p652
a(dp653
S'bootloader'
p654
(dp655
S'extended_fuses'
p656
S'0x05'
p657
sS'high_fuses'
p658
S'0xDA'
p659
sS'low_fuses'
p660
S'0xFF'
p661
sS'lock_bits'
p662
S'0x0F'
p663
sS'file'
p664
S'ATmegaBOOT_168_atmega328_pro_8MHz.hex'
p665
sS'path'
p666
S'arduino:atmega'
p667
sS'unlock_bits'
p668
S'0x3F'
p669
ssS'upload'
p670
(dp671
S'protocol'
p672
S'arduino'
p673
sS'maximum_size'
p674
S'30720'
p675
sS'speed'
p676
S'57600'
p677
ssS'build'
p678
(dp679
S'core'
p680
S'arduino'
p681
sS'mcu'
p682
S'atmega328p'
p683
sS'cppoption1'
p684
S'-fno-use-cxa-atexit'
p685
sS'f_cpu'
p686
S'8000000L'
p687
sS'variant'
p688
S'eightanaloginputs'
p689
ssS'name'
p690
S'Arduino Fio'
p691
saa(lp692
S'bt328'
p693
a(dp694
S'bootloader'
p695
(dp696
S'extended_fuses'
p697
S'0x05'
p698
sS'high_fuses'
p699
S'0xd8'
p700
sS'low_fuses'
p701
S'0xff'
p702
sS'lock_bits'
p703
S'0x0F'
p704
sS'file'
p705
S'ATmegaBOOT_168_atmega328_bt.hex'
p706
sS'path'
p707
S'bt'
p708
sS'unlock_bits'
p709
S'0x3F'
p710
ssS'upload'
p711
(dp712
S'protocol'
p713
S'arduino'
p714
sS'maximum_size'
p715
S'28672'
p716
sS'speed'
p717
S'19200'
p718
sS'disable_flushing'
p719
S'true'
p720
ssS'build'
p721
(dp722
S'core'
p723
S'arduino'
p724
sS'mcu'
p725
S'atmega328p'
p726
sS'cppoption1'
p727
S'-fno-use-cxa-atexit'
p728
sS'f_cpu'
p729
S'16000000L'
p730
sS'variant'
p731
S'eightanaloginputs'
p732
ssS'name'
p733
S'Arduino BT w/ ATmega328'
p734
saa(lp735
S'bt'
p736
a(dp737
S'bootloader'
p738
(dp739
S'extended_fuses'
p740
S'0x00'
p741
sS'high_fuses'
p742
S'0xdd'
p743
sS'low_fuses'
p744
S'0xff'
p745
sS'lock_bits'
p746
S'0x0F'
p747
sS'file'
p748
S'ATmegaBOOT_168.hex'
p749
sS'path'
p750
S'bt'
p751
sS'unlock_bits'
p752
S'0x3F'
p753
ssS'upload'
p754
(dp755
S'protocol'
p756
S'arduino'
p757
sS'maximum_size'
p758
S'14336'
p759
sS'speed'
p760
S'19200'
p761
sS'disable_flushing'
p762
S'true'
p763
ssS'build'
p764
(dp765
S'core'
p766
S'arduino'
p767
sS'mcu'
p768
S'atmega168'
p769
sS'cppoption1'
p770
S'-fno-use-cxa-atexit'
p771
sS'f_cpu'
p772
S'16000000L'
p773
sS'variant'
p774
S'eightanaloginputs'
p775
ssS'name'
p776
S'Arduino BT w/ ATmega168'
p777
saa(lp778
S'LilyPadUSB'
p779
a(dp780
S'bootloader'
p781
(dp782
S'extended_fuses'
p783
S'0xce'
p784
sS'high_fuses'
p785
S'0xd8'
p786
sS'low_fuses'
p787
S'0xff'
p788
sS'lock_bits'
p789
S'0x2F'
p790
sS'file'
p791
S'Caterina-LilyPadUSB.hex'
p792
sS'path'
p793
S'caterina-LilyPadUSB'
p794
sS'unlock_bits'
p795
S'0x3F'
p796
ssS'upload'
p797
(dp798
S'protocol'
p799
S'avr109'
p800
sS'maximum_size'
p801
S'28672'
p802
sS'speed'
p803
S'57600'
p804
sS'disable_flushing'
p805
S'true'
p806
ssS'build'
p807
(dp808
S'core'
p809
S'arduino'
p810
sS'f_cpu'
p811
S'8000000L'
p812
sS'vid'
p813
S'0x1B4F'
p814
sS'pid'
p815
S'0x9208'
p816
sS'cppoption1'
p817
S'-fno-use-cxa-atexit'
p818
sS'variant'
p819
S'leonardo'
p820
sS'mcu'
p821
S'atmega32u4'
p822
ssS'name'
p823
S'LilyPad Arduino USB'
p824
saa(lp825
S'lilypad328'
p826
a(dp827
S'bootloader'
p828
(dp829
S'extended_fuses'
p830
S'0x05'
p831
sS'high_fuses'
p832
S'0xDA'
p833
sS'low_fuses'
p834
S'0xFF'
p835
sS'lock_bits'
p836
S'0x0F'
p837
sS'file'
p838
S'ATmegaBOOT_168_atmega328_pro_8MHz.hex'
p839
sS'path'
p840
S'atmega'
p841
sS'unlock_bits'
p842
S'0x3F'
p843
ssS'upload'
p844
(dp845
S'protocol'
p846
S'arduino'
p847
sS'maximum_size'
p848
S'30720'
p849
sS'speed'
p850
S'57600'
p851
ssS'build'
p852
(dp853
S'core'
p854
S'arduino'
p855
sS'mcu'
p856
S'atmega328p'
p857
sS'cppoption1'
p858
S'-fno-use-cxa-atexit'
p859
sS'f_cpu'
p860
S'8000000L'
p861
sS'variant'
p862
S'standard'
p863
ssS'name'
p864
S'LilyPad Arduino w/ ATmega328'
p865
saa(lp866
S'lilypad'
p867
a(dp868
S'bootloader'
p869
(dp870
S'extended_fuses'
p871
S'0x00'
p872
sS'high_fuses'
p873
S'0xdd'
p874
sS'low_fuses'
p875
S'0xe2'
p876
sS'lock_bits'
p877
S'0x0F'
p878
sS'file'
p879
S'LilyPadBOOT_168.hex'
p880
sS'path'
p881
S'lilypad'
p882
sS'unlock_bits'
p883
S'0x3F'
p884
ssS'upload'
p885
(dp886
S'protocol'
p887
S'arduino'
p888
sS'maximum_size'
p889
S'14336'
p890
sS'speed'
p891
S'19200'
p892
ssS'build'
p893
(dp894
S'core'
p895
S'arduino'
p896
sS'mcu'
p897
S'atmega168'
p898
sS'cppoption1'
p899
S'-fno-use-cxa-atexit'
p900
sS'f_cpu'
p901
S'8000000L'
p902
sS'variant'
p903
S'standard'
p904
ssS'name'
p905
S'LilyPad Arduino w/ ATmega168'
p906
saa(lp907
S'pro5v328'
p908
a(dp909
S'bootloader'
p910
(dp911
S'extended_fuses'
p912
S'0x05'
p913
sS'high_fuses'
p914
S'0xDA'
p915
sS'low_fuses'
p916
S'0xFF'
p917
sS'lock_bits'
p918
S'0x0F'
p919
sS'file'
p920
S'ATmegaBOOT_168_atmega328.hex'
p921
sS'path'
p922
S'atmega'
p923
sS'unlock_bits'
p924
S'0x3F'
p925
ssS'upload'
p926
(dp927
S'protocol'
p928
S'arduino'
p929
sS'maximum_size'
p930
S'30720'
p931
sS'speed'
p932
S'57600'
p933
ssS'build'
p934
(dp935
S'core'
p936
S'arduino'
p937
sS'mcu'
p938
S'atmega328p'
p939
sS'cppoption1'
p940
S'-fno-use-cxa-atexit'
p941
sS'f_cpu'
p942
S'16000000L'
p943
sS'variant'
p944
S'standard'
p945
ssS'name'
p946
S'Arduino Pro or Pro Mini (5V, 16 MHz) w/ ATmega328'
p947
saa(lp948
S'pro5v'
p949
a(dp950
S'bootloader'
p951
(dp952
S'extended_fuses'
p953
S'0x00'
p954
sS'high_fuses'
p955
S'0xdd'
p956
sS'low_fuses'
p957
S'0xff'
p958
sS'lock_bits'
p959
S'0x0F'
p960
sS'file'
p961
S'ATmegaBOOT_168_diecimila.hex'
p962
sS'path'
p963
S'atmega'
p964
sS'unlock_bits'
p965
S'0x3F'
p966
ssS'upload'
p967
(dp968
S'protocol'
p969
S'arduino'
p970
sS'maximum_size'
p971
S'14336'
p972
sS'speed'
p973
S'19200'
p974
ssS'build'
p975
(dp976
S'core'
p977
S'arduino'
p978
sS'mcu'
p979
S'atmega168'
p980
sS'cppoption1'
p981
S'-fno-use-cxa-atexit'
p982
sS'f_cpu'
p983
S'16000000L'
p984
sS'variant'
p985
S'standard'
p986
ssS'name'
p987
S'Arduino Pro or Pro Mini (5V, 16 MHz) w/ ATmega168'
p988
saa(lp989
S'pro328'
p990
a(dp991
S'bootloader'
p992
(dp993
S'extended_fuses'
p994
S'0x05'
p995
sS'high_fuses'
p996
S'0xDA'
p997
sS'low_fuses'
p998
S'0xFF'
p999
sS'lock_bits'
p1000
S'0x0F'
p1001
sS'file'
p1002
S'ATmegaBOOT_168_atmega328_pro_8MHz.hex'
p1003
sS'path'
p1004
S'atmega'
p1005
sS'unlock_bits'
p1006
S'0x3F'
p1007
ssS'upload'
p1008
(dp1009
S'protocol'
p1010
S'arduino'
p1011
sS'maximum_size'
p1012
S'30720'
p1013
sS'speed'
p1014
S'57600'
p1015
ssS'build'
p1016
(dp1017
S'core'
p1018
S'arduino'
p1019
sS'mcu'
p1020
S'atmega328p'
p1021
sS'cppoption1'
p1022
S'-fno-use-cxa-atexit'
p1023
sS'f_cpu'
p1024
S'8000000L'
p1025
sS'variant'
p1026
S'standard'
p1027
ssS'name'
p1028
S'Arduino Pro or Pro Mini (3.3V, 8 MHz) w/ ATmega328'
p1029
saa(lp1030
S'pro'
p1031
a(dp1032
S'bootloader'
p1033
(dp1034
S'extended_fuses'
p1035
S'0x00'
p1036
sS'high_fuses'
p1037
S'0xdd'
p1038
sS'low_fuses'
p1039
S'0xc6'
p1040
sS'lock_bits'
p1041
S'0x0F'
p1042
sS'file'
p1043
S'ATmegaBOOT_168_pro_8MHz.hex'
p1044
sS'path'
p1045
S'atmega'
p1046
sS'unlock_bits'
p1047
S'0x3F'
p1048
ssS'upload'
p1049
(dp1050
S'protocol'
p1051
S'arduino'
p1052
sS'maximum_size'
p1053
S'14336'
p1054
sS'speed'
p1055
S'19200'
p1056
ssS'build'
p1057
(dp1058
S'core'
p1059
S'arduino'
p1060
sS'mcu'
p1061
S'atmega168'
p1062
sS'cppoption1'
p1063
S'-fno-use-cxa-atexit'
p1064
sS'f_cpu'
p1065
S'8000000L'
p1066
sS'variant'
p1067
S'standard'
p1068
ssS'name'
p1069
S'Arduino Pro or Pro Mini (3.3V, 8 MHz) w/ ATmega168'
p1070
saa(lp1071
S'atmega168'
p1072
a(dp1073
S'bootloader'
p1074
(dp1075
S'extended_fuses'
p1076
S'0x00'
p1077
sS'high_fuses'
p1078
S'0xdd'
p1079
sS'low_fuses'
p1080
S'0xff'
p1081
sS'lock_bits'
p1082
S'0x0F'
p1083
sS'file'
p1084
S'ATmegaBOOT_168_ng.hex'
p1085
sS'path'
p1086
S'atmega'
p1087
sS'unlock_bits'
p1088
S'0x3F'
p1089
ssS'upload'
p1090
(dp1091
S'protocol'
p1092
S'arduino'
p1093
sS'maximum_size'
p1094
S'14336'
p1095
sS'speed'
p1096
S'19200'
p1097
ssS'build'
p1098
(dp1099
S'core'
p1100
S'arduino'
p1101
sS'mcu'
p1102
S'atmega168'
p1103
sS'cppoption1'
p1104
S'-fno-use-cxa-atexit'
p1105
sS'f_cpu'
p1106
S'16000000L'
p1107
sS'variant'
p1108
S'standard'
p1109
ssS'name'
p1110
S'Arduino NG or older w/ ATmega168'
p1111
saa(lp1112
S'atmega8'
p1113
a(dp1114
S'bootloader'
p1115
(dp1116
S'high_fuses'
p1117
S'0xca'
p1118
sS'low_fuses'
p1119
S'0xdf'
p1120
sS'lock_bits'
p1121
S'0x0F'
p1122
sS'file'
p1123
S'ATmegaBOOT-prod-firmware-2009-11-07.hex'
p1124
sS'path'
p1125
S'atmega8'
p1126
sS'unlock_bits'
p1127
S'0x3F'
p1128
ssS'upload'
p1129
(dp1130
S'protocol'
p1131
S'arduino'
p1132
sS'maximum_size'
p1133
S'7168'
p1134
sS'speed'
p1135
S'19200'
p1136
ssS'build'
p1137
(dp1138
S'core'
p1139
S'arduino'
p1140
sS'mcu'
p1141
S'atmega8'
p1142
sS'cppoption1'
p1143
S'-fno-use-cxa-atexit'
p1144
sS'f_cpu'
p1145
S'16000000L'
p1146
sS'variant'
p1147
S'standard'
p1148
ssS'name'
p1149
S'Arduino NG or older w/ ATmega8'
p1150
saa(lp1151
S'robotControl'
p1152
a(dp1153
S'bootloader'
p1154
(dp1155
S'extended_fuses'
p1156
S'0xcb'
p1157
sS'high_fuses'
p1158
S'0xd8'
p1159
sS'low_fuses'
p1160
S'0xff'
p1161
sS'lock_bits'
p1162
S'0x2F'
p1163
sS'file'
p1164
S'Caterina-Robot-Control.hex'
p1165
sS'path'
p1166
S'caterina-Arduino_Robot'
p1167
sS'unlock_bits'
p1168
S'0x3F'
p1169
ssS'upload'
p1170
(dp1171
S'protocol'
p1172
S'avr109'
p1173
sS'maximum_size'
p1174
S'28672'
p1175
sS'speed'
p1176
S'57600'
p1177
sS'disable_flushing'
p1178
S'true'
p1179
ssS'build'
p1180
(dp1181
S'core'
p1182
S'robot'
p1183
sS'f_cpu'
p1184
S'16000000L'
p1185
sS'vid'
p1186
S'0x2341'
p1187
sS'pid'
p1188
S'0x8038'
p1189
sS'cppoption1'
p1190
S'-fno-use-cxa-atexit'
p1191
sS'variant'
p1192
S'robot_control'
p1193
sS'mcu'
p1194
S'atmega32u4'
p1195
ssS'name'
p1196
S'Arduino Robot Control'
p1197
saa(lp1198
S'robotMotor'
p1199
a(dp1200
S'bootloader'
p1201
(dp1202
S'extended_fuses'
p1203
S'0xcb'
p1204
sS'high_fuses'
p1205
S'0xd8'
p1206
sS'low_fuses'
p1207
S'0xff'
p1208
sS'lock_bits'
p1209
S'0x2F'
p1210
sS'file'
p1211
S'Caterina-Robot-Motor.hex'
p1212
sS'path'
p1213
S'caterina-Arduino_Robot'
p1214
sS'unlock_bits'
p1215
S'0x3F'
p1216
ssS'upload'
p1217
(dp1218
S'protocol'
p1219
S'avr109'
p1220
sS'maximum_size'
p1221
S'28672'
p1222
sS'speed'
p1223
S'57600'
p1224
sS'disable_flushing'
p1225
S'true'
p1226
ssS'build'
p1227
(dp1228
S'core'
p1229
S'robot'
p1230
sS'f_cpu'
p1231
S'16000000L'
p1232
sS'vid'
p1233
S'0x2341'
p1234
sS'pid'
p1235
S'0x8039'
p1236
sS'cppoption1'
p1237
S'-fno-use-cxa-atexit'
p1238
sS'variant'
p1239
S'robot_motor'
p1240
sS'mcu'
p1241
S'atmega32u4'
p1242
ssS'name'
p1243
S'Arduino Robot Motor'
p1244
saatp1245
Rp1246
(dp1247
S'default'
p1248
S'uno'
p1249
sbtp1250
a(S'ldflags'
p1251
g2
(g3
g4
(lp1252
g6
aS'-Wl,-Os'
p1253
aS'-Wl,--gc-sections'
p1254
atp1255
Rp1256
tp1257
a.