(lp0
(S'cppflags'
p1
ccopy_reg
_reconstructor
p2
(cino.utils
SpaceList
p3
c__builtin__
list
p4
(lp5
S'-mmcu=atmega328p'
p6
aS'-DF_CPU=16000000L'
p7
aS'-DARDUINO=105'
p8
aS'-I/usr/share/arduino/hardware/arduino/cores/arduino'
p9
aS'-ffunction-sections'
p10
aS'-fdata-sections'
p11
aS'-g'
p12
aS'-Os'
p13
aS'-w'
p14
aS'-I/usr/share/arduino/hardware/arduino/variants/standard'
p15
aS'-I/usr/share/arduino/hardware/arduino/cores/arduino'
p16
aS'-I/usr/share/arduino/hardware/arduino/cores/arduino/avr-libc'
p17
atp18
Rp19
tp20
a(S'version.txt'
p21
S'/usr/share/arduino/lib/version.txt'
p22
tp23
a(S'used_libs'
p24
(lp25
S'/usr/share/arduino/hardware/arduino/cores/arduino'
p26
atp27
a(S'cc'
p28
S'/usr/bin/avr-gcc'
p29
tp30
a(S'make'
p31
S'/usr/bin/make'
p32
tp33
a(S'build_dir'
p34
S'.build/atmega328'
p35
tp36
a(S'arduino_core_dir'
p37
g26
tp38
a(S'boards.txt'
p39
S'/usr/share/arduino/hardware/arduino/boards.txt'
p40
tp41
a(S'cxxflags'
p42
g2
(g3
g4
(lp43
S'-fno-exceptions'
p44
atp45
Rp46
tp47
a(S'arduino_variants_dir'
p48
S'/usr/share/arduino/hardware/arduino/variants'
p49
tp50
a(S'deps'
p51
g2
(g3
g4
(lp52
S'.build/atmega328/src/dependencies.d'
p53
aS'.build/atmega328/arduino/dependencies.d'
p54
atp55
Rp56
tp57
a(S'ar'
p58
S'/usr/bin/avr-ar'
p59
tp60
a(S'names'
p61
(dp62
S'cpp'
p63
S'%s.cpp'
p64
sS'obj'
p65
S'%s.o'
p66
sS'deps'
p67
S'%s.d'
p68
sS'lib'
p69
S'lib%s.a'
p70
stp71
a(S'cflags'
p72
g2
(g3
g4
(lp73
tp74
Rp75
tp76
a(S'ldflags'
p77
g2
(g3
g4
(lp78
g6
aS'-Wl,-Os'
p79
aS'-Wl,--gc-sections'
p80
atp81
Rp82
tp83
a(S'arduino_libraries_dir'
p84
S'/usr/share/arduino/libraries'
p85
tp86
a(S'arduino_lib_version'
p87
g2
(cino.environment
Version
p88
c__builtin__
tuple
p89
(I1
I0
I5
tp90
tp91
Rp92
tp93
a(S'objcopy'
p94
S'/usr/bin/avr-objcopy'
p95
tp96
a(S'board_models'
p97
cino.environment
BoardModels
p98
((lp99
(lp100
S'uno'
p101
a(dp102
S'bootloader'
p103
(dp104
S'extended_fuses'
p105
S'0x05'
p106
sS'high_fuses'
p107
S'0xde'
p108
sS'low_fuses'
p109
S'0xff'
p110
sS'lock_bits'
p111
S'0x0F'
p112
sS'file'
p113
S'optiboot_atmega328.hex'
p114
sS'path'
p115
S'optiboot'
p116
sS'unlock_bits'
p117
S'0x3F'
p118
ssS'upload'
p119
(dp120
S'speed'
p121
S'115200'
p122
sS'maximum_size'
p123
S'32256'
p124
sS'protocol'
p125
S'arduino'
p126
ssS'name'
p127
S'Arduino Uno'
p128
sS'build'
p129
(dp130
S'core'
p131
S'arduino'
p132
sS'mcu'
p133
S'atmega328p'
p134
sS'cppoption1'
p135
S'-fno-use-cxa-atexit'
p136
sS'f_cpu'
p137
S'16000000L'
p138
sS'variant'
p139
S'standard'
p140
ssaa(lp141
S'atmega328'
p142
a(dp143
S'bootloader'
p144
(dp145
S'extended_fuses'
p146
S'0x05'
p147
sS'high_fuses'
p148
S'0xDA'
p149
sS'low_fuses'
p150
S'0xFF'
p151
sS'lock_bits'
p152
S'0x0F'
p153
sS'file'
p154
S'ATmegaBOOT_168_atmega328.hex'
p155
sS'path'
p156
S'atmega'
p157
sS'unlock_bits'
p158
S'0x3F'
p159
ssS'upload'
p160
(dp161
S'speed'
p162
S'57600'
p163
sS'maximum_size'
p164
S'30720'
p165
sS'protocol'
p166
S'arduino'
p167
ssS'name'
p168
S'Arduino Duemilanove w/ ATmega328'
p169
sS'build'
p170
(dp171
S'core'
p172
S'arduino'
p173
sS'mcu'
p174
S'atmega328p'
p175
sS'cppoption1'
p176
S'-fno-use-cxa-atexit'
p177
sS'f_cpu'
p178
S'16000000L'
p179
sS'variant'
p180
S'standard'
p181
ssaa(lp182
S'diecimila'
p183
a(dp184
S'bootloader'
p185
(dp186
S'extended_fuses'
p187
S'0x00'
p188
sS'high_fuses'
p189
S'0xdd'
p190
sS'low_fuses'
p191
S'0xff'
p192
sS'lock_bits'
p193
S'0x0F'
p194
sS'file'
p195
S'ATmegaBOOT_168_diecimila.hex'
p196
sS'path'
p197
S'atmega'
p198
sS'unlock_bits'
p199
S'0x3F'
p200
ssS'upload'
p201
(dp202
S'speed'
p203
S'19200'
p204
sS'maximum_size'
p205
S'14336'
p206
sS'protocol'
p207
S'arduino'
p208
ssS'name'
p209
S'Arduino Diecimila or Duemilanove w/ ATmega168'
p210
sS'build'
p211
(dp212
S'core'
p213
S'arduino'
p214
sS'mcu'
p215
S'atmega168'
p216
sS'cppoption1'
p217
S'-fno-use-cxa-atexit'
p218
sS'f_cpu'
p219
S'16000000L'
p220
sS'variant'
p221
S'standard'
p222
ssaa(lp223
S'nano328'
p224
a(dp225
S'bootloader'
p226
(dp227
S'extended_fuses'
p228
S'0x05'
p229
sS'high_fuses'
p230
S'0xDA'
p231
sS'low_fuses'
p232
S'0xFF'
p233
sS'lock_bits'
p234
S'0x0F'
p235
sS'file'
p236
S'ATmegaBOOT_168_atmega328.hex'
p237
sS'path'
p238
S'atmega'
p239
sS'unlock_bits'
p240
S'0x3F'
p241
ssS'upload'
p242
(dp243
S'speed'
p244
S'57600'
p245
sS'maximum_size'
p246
S'30720'
p247
sS'protocol'
p248
S'arduino'
p249
ssS'name'
p250
S'Arduino Nano w/ ATmega328'
p251
sS'build'
p252
(dp253
S'core'
p254
S'arduino'
p255
sS'mcu'
p256
S'atmega328p'
p257
sS'cppoption1'
p258
S'-fno-use-cxa-atexit'
p259
sS'f_cpu'
p260
S'16000000L'
p261
sS'variant'
p262
S'eightanaloginputs'
p263
ssaa(lp264
S'nano'
p265
a(dp266
S'bootloader'
p267
(dp268
S'extended_fuses'
p269
S'0x00'
p270
sS'high_fuses'
p271
S'0xdd'
p272
sS'low_fuses'
p273
S'0xff'
p274
sS'lock_bits'
p275
S'0x0F'
p276
sS'file'
p277
S'ATmegaBOOT_168_diecimila.hex'
p278
sS'path'
p279
S'atmega'
p280
sS'unlock_bits'
p281
S'0x3F'
p282
ssS'upload'
p283
(dp284
S'speed'
p285
S'19200'
p286
sS'maximum_size'
p287
S'14336'
p288
sS'protocol'
p289
S'arduino'
p290
ssS'name'
p291
S'Arduino Nano w/ ATmega168'
p292
sS'build'
p293
(dp294
S'core'
p295
S'arduino'
p296
sS'mcu'
p297
S'atmega168'
p298
sS'cppoption1'
p299
S'-fno-use-cxa-atexit'
p300
sS'f_cpu'
p301
S'16000000L'
p302
sS'variant'
p303
S'eightanaloginputs'
p304
ssaa(lp305
S'mega2560'
p306
a(dp307
S'bootloader'
p308
(dp309
S'extended_fuses'
p310
S'0xFD'
p311
sS'high_fuses'
p312
S'0xD8'
p313
sS'low_fuses'
p314
S'0xFF'
p315
sS'lock_bits'
p316
S'0x0F'
p317
sS'file'
p318
S'stk500boot_v2_mega2560.hex'
p319
sS'path'
p320
S'stk500v2'
p321
sS'unlock_bits'
p322
S'0x3F'
p323
ssS'upload'
p324
(dp325
S'speed'
p326
S'115200'
p327
sS'maximum_size'
p328
S'258048'
p329
sS'protocol'
p330
S'wiring'
p331
ssS'name'
p332
S'Arduino Mega 2560 or Mega ADK'
p333
sS'build'
p334
(dp335
S'core'
p336
S'arduino'
p337
sS'mcu'
p338
S'atmega2560'
p339
sS'cppoption1'
p340
S'-fno-use-cxa-atexit'
p341
sS'f_cpu'
p342
S'16000000L'
p343
sS'variant'
p344
S'mega'
p345
ssaa(lp346
S'mega'
p347
a(dp348
S'bootloader'
p349
(dp350
S'extended_fuses'
p351
S'0xF5'
p352
sS'high_fuses'
p353
S'0xDA'
p354
sS'low_fuses'
p355
S'0xFF'
p356
sS'lock_bits'
p357
S'0x0F'
p358
sS'file'
p359
S'ATmegaBOOT_168_atmega1280.hex'
p360
sS'path'
p361
S'atmega'
p362
sS'unlock_bits'
p363
S'0x3F'
p364
ssS'upload'
p365
(dp366
S'speed'
p367
S'57600'
p368
sS'maximum_size'
p369
S'126976'
p370
sS'protocol'
p371
S'arduino'
p372
ssS'name'
p373
S'Arduino Mega (ATmega1280)'
p374
sS'build'
p375
(dp376
S'core'
p377
S'arduino'
p378
sS'mcu'
p379
S'atmega1280'
p380
sS'cppoption1'
p381
S'-fno-use-cxa-atexit'
p382
sS'f_cpu'
p383
S'16000000L'
p384
sS'variant'
p385
S'mega'
p386
ssaa(lp387
S'leonardo'
p388
a(dp389
S'bootloader'
p390
(dp391
S'extended_fuses'
p392
S'0xcb'
p393
sS'high_fuses'
p394
S'0xd8'
p395
sS'low_fuses'
p396
S'0xff'
p397
sS'lock_bits'
p398
S'0x2F'
p399
sS'file'
p400
S'Caterina-Leonardo.hex'
p401
sS'path'
p402
S'caterina'
p403
sS'unlock_bits'
p404
S'0x3F'
p405
ssS'upload'
p406
(dp407
S'speed'
p408
S'57600'
p409
sS'maximum_size'
p410
S'28672'
p411
sS'protocol'
p412
S'avr109'
p413
sS'disable_flushing'
p414
S'true'
p415
ssS'name'
p416
S'Arduino Leonardo'
p417
sS'build'
p418
(dp419
S'core'
p420
S'arduino'
p421
sS'f_cpu'
p422
S'16000000L'
p423
sS'vid'
p424
S'0x2341'
p425
sS'pid'
p426
S'0x8036'
p427
sS'cppoption1'
p428
S'-fno-use-cxa-atexit'
p429
sS'variant'
p430
S'leonardo'
p431
sS'mcu'
p432
S'atmega32u4'
p433
ssaa(lp434
S'esplora'
p435
a(dp436
S'bootloader'
p437
(dp438
S'extended_fuses'
p439
S'0xcb'
p440
sS'high_fuses'
p441
S'0xd8'
p442
sS'low_fuses'
p443
S'0xff'
p444
sS'lock_bits'
p445
S'0x2F'
p446
sS'file'
p447
S'Caterina-Esplora.hex'
p448
sS'path'
p449
S'caterina'
p450
sS'unlock_bits'
p451
S'0x3F'
p452
ssS'upload'
p453
(dp454
S'speed'
p455
S'57600'
p456
sS'maximum_size'
p457
S'28672'
p458
sS'protocol'
p459
S'avr109'
p460
sS'disable_flushing'
p461
S'true'
p462
ssS'name'
p463
S'Arduino Esplora'
p464
sS'build'
p465
(dp466
S'core'
p467
S'arduino'
p468
sS'f_cpu'
p469
S'16000000L'
p470
sS'vid'
p471
S'0x2341'
p472
sS'pid'
p473
S'0x803C'
p474
sS'cppoption1'
p475
S'-fno-use-cxa-atexit'
p476
sS'variant'
p477
S'leonardo'
p478
sS'mcu'
p479
S'atmega32u4'
p480
ssaa(lp481
S'micro'
p482
a(dp483
S'bootloader'
p484
(dp485
S'extended_fuses'
p486
S'0xcb'
p487
sS'high_fuses'
p488
S'0xd8'
p489
sS'low_fuses'
p490
S'0xff'
p491
sS'lock_bits'
p492
S'0x2F'
p493
sS'file'
p494
S'Caterina-Micro.hex'
p495
sS'path'
p496
S'caterina'
p497
sS'unlock_bits'
p498
S'0x3F'
p499
ssS'upload'
p500
(dp501
S'speed'
p502
S'57600'
p503
sS'maximum_size'
p504
S'28672'
p505
sS'protocol'
p506
S'avr109'
p507
sS'disable_flushing'
p508
S'true'
p509
ssS'name'
p510
S'Arduino Micro'
p511
sS'build'
p512
(dp513
S'core'
p514
S'arduino'
p515
sS'f_cpu'
p516
S'16000000L'
p517
sS'vid'
p518
S'0x2341'
p519
sS'pid'
p520
S'0x8037'
p521
sS'cppoption1'
p522
S'-fno-use-cxa-atexit'
p523
sS'variant'
p524
S'micro'
p525
sS'mcu'
p526
S'atmega32u4'
p527
ssaa(lp528
S'mini328'
p529
a(dp530
S'bootloader'
p531
(dp532
S'extended_fuses'
p533
S'0x05'
p534
sS'high_fuses'
p535
S'0xd8'
p536
sS'low_fuses'
p537
S'0xff'
p538
sS'lock_bits'
p539
S'0x0F'
p540
sS'file'
p541
S'optiboot_atmega328-Mini.hex'
p542
sS'path'
p543
S'optiboot'
p544
sS'unlock_bits'
p545
S'0x3F'
p546
ssS'upload'
p547
(dp548
S'speed'
p549
S'115200'
p550
sS'maximum_size'
p551
S'28672'
p552
sS'protocol'
p553
S'arduino'
p554
ssS'name'
p555
S'Arduino Mini w/ ATmega328'
p556
sS'build'
p557
(dp558
S'core'
p559
S'arduino'
p560
sS'mcu'
p561
S'atmega328p'
p562
sS'cppoption1'
p563
S'-fno-use-cxa-atexit'
p564
sS'f_cpu'
p565
S'16000000L'
p566
sS'variant'
p567
S'eightanaloginputs'
p568
ssaa(lp569
S'mini'
p570
a(dp571
S'bootloader'
p572
(dp573
S'extended_fuses'
p574
S'0x00'
p575
sS'high_fuses'
p576
S'0xdd'
p577
sS'low_fuses'
p578
S'0xff'
p579
sS'lock_bits'
p580
S'0x0F'
p581
sS'file'
p582
S'ATmegaBOOT_168_ng.hex'
p583
sS'path'
p584
S'atmega'
p585
sS'unlock_bits'
p586
S'0x3F'
p587
ssS'upload'
p588
(dp589
S'speed'
p590
S'19200'
p591
sS'maximum_size'
p592
S'14336'
p593
sS'protocol'
p594
S'arduino'
p595
ssS'name'
p596
S'Arduino Mini w/ ATmega168'
p597
sS'build'
p598
(dp599
S'core'
p600
S'arduino'
p601
sS'mcu'
p602
S'atmega168'
p603
sS'cppoption1'
p604
S'-fno-use-cxa-atexit'
p605
sS'f_cpu'
p606
S'16000000L'
p607
sS'variant'
p608
S'eightanaloginputs'
p609
ssaa(lp610
S'ethernet'
p611
a(dp612
S'bootloader'
p613
(dp614
S'extended_fuses'
p615
S'0x05'
p616
sS'high_fuses'
p617
S'0xde'
p618
sS'low_fuses'
p619
S'0xff'
p620
sS'lock_bits'
p621
S'0x0F'
p622
sS'file'
p623
S'optiboot_atmega328.hex'
p624
sS'path'
p625
S'optiboot'
p626
sS'unlock_bits'
p627
S'0x3F'
p628
ssS'upload'
p629
(dp630
S'speed'
p631
S'115200'
p632
sS'maximum_size'
p633
S'32256'
p634
sS'protocol'
p635
S'arduino'
p636
ssS'name'
p637
S'Arduino Ethernet'
p638
sS'build'
p639
(dp640
S'f_cpu'
p641
S'16000000L'
p642
sS'mcu'
p643
S'atmega328p'
p644
sS'cppoption1'
p645
S'-fno-use-cxa-atexit'
p646
sS'variant'
p647
S'standard'
p648
sS'core'
p649
S'arduino'
p650
ssaa(lp651
S'fio'
p652
a(dp653
S'bootloader'
p654
(dp655
S'extended_fuses'
p656
S'0x05'
p657
sS'high_fuses'
p658
S'0xDA'
p659
sS'low_fuses'
p660
S'0xFF'
p661
sS'lock_bits'
p662
S'0x0F'
p663
sS'file'
p664
S'ATmegaBOOT_168_atmega328_pro_8MHz.hex'
p665
sS'path'
p666
S'arduino:atmega'
p667
sS'unlock_bits'
p668
S'0x3F'
p669
ssS'upload'
p670
(dp671
S'speed'
p672
S'57600'
p673
sS'maximum_size'
p674
S'30720'
p675
sS'protocol'
p676
S'arduino'
p677
ssS'name'
p678
S'Arduino Fio'
p679
sS'build'
p680
(dp681
S'core'
p682
S'arduino'
p683
sS'mcu'
p684
S'atmega328p'
p685
sS'cppoption1'
p686
S'-fno-use-cxa-atexit'
p687
sS'f_cpu'
p688
S'8000000L'
p689
sS'variant'
p690
S'eightanaloginputs'
p691
ssaa(lp692
S'bt328'
p693
a(dp694
S'bootloader'
p695
(dp696
S'extended_fuses'
p697
S'0x05'
p698
sS'high_fuses'
p699
S'0xd8'
p700
sS'low_fuses'
p701
S'0xff'
p702
sS'lock_bits'
p703
S'0x0F'
p704
sS'file'
p705
S'ATmegaBOOT_168_atmega328_bt.hex'
p706
sS'path'
p707
S'bt'
p708
sS'unlock_bits'
p709
S'0x3F'
p710
ssS'upload'
p711
(dp712
S'speed'
p713
S'19200'
p714
sS'maximum_size'
p715
S'28672'
p716
sS'protocol'
p717
S'arduino'
p718
sS'disable_flushing'
p719
S'true'
p720
ssS'name'
p721
S'Arduino BT w/ ATmega328'
p722
sS'build'
p723
(dp724
S'core'
p725
S'arduino'
p726
sS'mcu'
p727
S'atmega328p'
p728
sS'cppoption1'
p729
S'-fno-use-cxa-atexit'
p730
sS'f_cpu'
p731
S'16000000L'
p732
sS'variant'
p733
S'eightanaloginputs'
p734
ssaa(lp735
S'bt'
p736
a(dp737
S'bootloader'
p738
(dp739
S'extended_fuses'
p740
S'0x00'
p741
sS'high_fuses'
p742
S'0xdd'
p743
sS'low_fuses'
p744
S'0xff'
p745
sS'lock_bits'
p746
S'0x0F'
p747
sS'file'
p748
S'ATmegaBOOT_168.hex'
p749
sS'path'
p750
S'bt'
p751
sS'unlock_bits'
p752
S'0x3F'
p753
ssS'upload'
p754
(dp755
S'speed'
p756
S'19200'
p757
sS'maximum_size'
p758
S'14336'
p759
sS'protocol'
p760
S'arduino'
p761
sS'disable_flushing'
p762
S'true'
p763
ssS'name'
p764
S'Arduino BT w/ ATmega168'
p765
sS'build'
p766
(dp767
S'core'
p768
S'arduino'
p769
sS'mcu'
p770
S'atmega168'
p771
sS'cppoption1'
p772
S'-fno-use-cxa-atexit'
p773
sS'f_cpu'
p774
S'16000000L'
p775
sS'variant'
p776
S'eightanaloginputs'
p777
ssaa(lp778
S'LilyPadUSB'
p779
a(dp780
S'bootloader'
p781
(dp782
S'extended_fuses'
p783
S'0xce'
p784
sS'high_fuses'
p785
S'0xd8'
p786
sS'low_fuses'
p787
S'0xff'
p788
sS'lock_bits'
p789
S'0x2F'
p790
sS'file'
p791
S'Caterina-LilyPadUSB.hex'
p792
sS'path'
p793
S'caterina-LilyPadUSB'
p794
sS'unlock_bits'
p795
S'0x3F'
p796
ssS'upload'
p797
(dp798
S'speed'
p799
S'57600'
p800
sS'maximum_size'
p801
S'28672'
p802
sS'protocol'
p803
S'avr109'
p804
sS'disable_flushing'
p805
S'true'
p806
ssS'name'
p807
S'LilyPad Arduino USB'
p808
sS'build'
p809
(dp810
S'core'
p811
S'arduino'
p812
sS'f_cpu'
p813
S'8000000L'
p814
sS'vid'
p815
S'0x1B4F'
p816
sS'pid'
p817
S'0x9208'
p818
sS'cppoption1'
p819
S'-fno-use-cxa-atexit'
p820
sS'variant'
p821
S'leonardo'
p822
sS'mcu'
p823
S'atmega32u4'
p824
ssaa(lp825
S'lilypad328'
p826
a(dp827
S'bootloader'
p828
(dp829
S'extended_fuses'
p830
S'0x05'
p831
sS'high_fuses'
p832
S'0xDA'
p833
sS'low_fuses'
p834
S'0xFF'
p835
sS'lock_bits'
p836
S'0x0F'
p837
sS'file'
p838
S'ATmegaBOOT_168_atmega328_pro_8MHz.hex'
p839
sS'path'
p840
S'atmega'
p841
sS'unlock_bits'
p842
S'0x3F'
p843
ssS'upload'
p844
(dp845
S'speed'
p846
S'57600'
p847
sS'maximum_size'
p848
S'30720'
p849
sS'protocol'
p850
S'arduino'
p851
ssS'name'
p852
S'LilyPad Arduino w/ ATmega328'
p853
sS'build'
p854
(dp855
S'core'
p856
S'arduino'
p857
sS'mcu'
p858
S'atmega328p'
p859
sS'cppoption1'
p860
S'-fno-use-cxa-atexit'
p861
sS'f_cpu'
p862
S'8000000L'
p863
sS'variant'
p864
S'standard'
p865
ssaa(lp866
S'lilypad'
p867
a(dp868
S'bootloader'
p869
(dp870
S'extended_fuses'
p871
S'0x00'
p872
sS'high_fuses'
p873
S'0xdd'
p874
sS'low_fuses'
p875
S'0xe2'
p876
sS'lock_bits'
p877
S'0x0F'
p878
sS'file'
p879
S'LilyPadBOOT_168.hex'
p880
sS'path'
p881
S'lilypad'
p882
sS'unlock_bits'
p883
S'0x3F'
p884
ssS'upload'
p885
(dp886
S'speed'
p887
S'19200'
p888
sS'maximum_size'
p889
S'14336'
p890
sS'protocol'
p891
S'arduino'
p892
ssS'name'
p893
S'LilyPad Arduino w/ ATmega168'
p894
sS'build'
p895
(dp896
S'core'
p897
S'arduino'
p898
sS'mcu'
p899
S'atmega168'
p900
sS'cppoption1'
p901
S'-fno-use-cxa-atexit'
p902
sS'f_cpu'
p903
S'8000000L'
p904
sS'variant'
p905
S'standard'
p906
ssaa(lp907
S'pro5v328'
p908
a(dp909
S'bootloader'
p910
(dp911
S'extended_fuses'
p912
S'0x05'
p913
sS'high_fuses'
p914
S'0xDA'
p915
sS'low_fuses'
p916
S'0xFF'
p917
sS'lock_bits'
p918
S'0x0F'
p919
sS'file'
p920
S'ATmegaBOOT_168_atmega328.hex'
p921
sS'path'
p922
S'atmega'
p923
sS'unlock_bits'
p924
S'0x3F'
p925
ssS'upload'
p926
(dp927
S'speed'
p928
S'57600'
p929
sS'maximum_size'
p930
S'30720'
p931
sS'protocol'
p932
S'arduino'
p933
ssS'name'
p934
S'Arduino Pro or Pro Mini (5V, 16 MHz) w/ ATmega328'
p935
sS'build'
p936
(dp937
S'core'
p938
S'arduino'
p939
sS'mcu'
p940
S'atmega328p'
p941
sS'cppoption1'
p942
S'-fno-use-cxa-atexit'
p943
sS'f_cpu'
p944
S'16000000L'
p945
sS'variant'
p946
S'standard'
p947
ssaa(lp948
S'pro5v'
p949
a(dp950
S'bootloader'
p951
(dp952
S'extended_fuses'
p953
S'0x00'
p954
sS'high_fuses'
p955
S'0xdd'
p956
sS'low_fuses'
p957
S'0xff'
p958
sS'lock_bits'
p959
S'0x0F'
p960
sS'file'
p961
S'ATmegaBOOT_168_diecimila.hex'
p962
sS'path'
p963
S'atmega'
p964
sS'unlock_bits'
p965
S'0x3F'
p966
ssS'upload'
p967
(dp968
S'speed'
p969
S'19200'
p970
sS'maximum_size'
p971
S'14336'
p972
sS'protocol'
p973
S'arduino'
p974
ssS'name'
p975
S'Arduino Pro or Pro Mini (5V, 16 MHz) w/ ATmega168'
p976
sS'build'
p977
(dp978
S'core'
p979
S'arduino'
p980
sS'mcu'
p981
S'atmega168'
p982
sS'cppoption1'
p983
S'-fno-use-cxa-atexit'
p984
sS'f_cpu'
p985
S'16000000L'
p986
sS'variant'
p987
S'standard'
p988
ssaa(lp989
S'pro328'
p990
a(dp991
S'bootloader'
p992
(dp993
S'extended_fuses'
p994
S'0x05'
p995
sS'high_fuses'
p996
S'0xDA'
p997
sS'low_fuses'
p998
S'0xFF'
p999
sS'lock_bits'
p1000
S'0x0F'
p1001
sS'file'
p1002
S'ATmegaBOOT_168_atmega328_pro_8MHz.hex'
p1003
sS'path'
p1004
S'atmega'
p1005
sS'unlock_bits'
p1006
S'0x3F'
p1007
ssS'upload'
p1008
(dp1009
S'speed'
p1010
S'57600'
p1011
sS'maximum_size'
p1012
S'30720'
p1013
sS'protocol'
p1014
S'arduino'
p1015
ssS'name'
p1016
S'Arduino Pro or Pro Mini (3.3V, 8 MHz) w/ ATmega328'
p1017
sS'build'
p1018
(dp1019
S'core'
p1020
S'arduino'
p1021
sS'mcu'
p1022
S'atmega328p'
p1023
sS'cppoption1'
p1024
S'-fno-use-cxa-atexit'
p1025
sS'f_cpu'
p1026
S'8000000L'
p1027
sS'variant'
p1028
S'standard'
p1029
ssaa(lp1030
S'pro'
p1031
a(dp1032
S'bootloader'
p1033
(dp1034
S'extended_fuses'
p1035
S'0x00'
p1036
sS'high_fuses'
p1037
S'0xdd'
p1038
sS'low_fuses'
p1039
S'0xc6'
p1040
sS'lock_bits'
p1041
S'0x0F'
p1042
sS'file'
p1043
S'ATmegaBOOT_168_pro_8MHz.hex'
p1044
sS'path'
p1045
S'atmega'
p1046
sS'unlock_bits'
p1047
S'0x3F'
p1048
ssS'upload'
p1049
(dp1050
S'speed'
p1051
S'19200'
p1052
sS'maximum_size'
p1053
S'14336'
p1054
sS'protocol'
p1055
S'arduino'
p1056
ssS'name'
p1057
S'Arduino Pro or Pro Mini (3.3V, 8 MHz) w/ ATmega168'
p1058
sS'build'
p1059
(dp1060
S'core'
p1061
S'arduino'
p1062
sS'mcu'
p1063
S'atmega168'
p1064
sS'cppoption1'
p1065
S'-fno-use-cxa-atexit'
p1066
sS'f_cpu'
p1067
S'8000000L'
p1068
sS'variant'
p1069
S'standard'
p1070
ssaa(lp1071
S'atmega168'
p1072
a(dp1073
S'bootloader'
p1074
(dp1075
S'extended_fuses'
p1076
S'0x00'
p1077
sS'high_fuses'
p1078
S'0xdd'
p1079
sS'low_fuses'
p1080
S'0xff'
p1081
sS'lock_bits'
p1082
S'0x0F'
p1083
sS'file'
p1084
S'ATmegaBOOT_168_ng.hex'
p1085
sS'path'
p1086
S'atmega'
p1087
sS'unlock_bits'
p1088
S'0x3F'
p1089
ssS'upload'
p1090
(dp1091
S'speed'
p1092
S'19200'
p1093
sS'maximum_size'
p1094
S'14336'
p1095
sS'protocol'
p1096
S'arduino'
p1097
ssS'name'
p1098
S'Arduino NG or older w/ ATmega168'
p1099
sS'build'
p1100
(dp1101
S'core'
p1102
S'arduino'
p1103
sS'mcu'
p1104
S'atmega168'
p1105
sS'cppoption1'
p1106
S'-fno-use-cxa-atexit'
p1107
sS'f_cpu'
p1108
S'16000000L'
p1109
sS'variant'
p1110
S'standard'
p1111
ssaa(lp1112
S'atmega8'
p1113
a(dp1114
S'bootloader'
p1115
(dp1116
S'high_fuses'
p1117
S'0xca'
p1118
sS'low_fuses'
p1119
S'0xdf'
p1120
sS'lock_bits'
p1121
S'0x0F'
p1122
sS'file'
p1123
S'ATmegaBOOT-prod-firmware-2009-11-07.hex'
p1124
sS'path'
p1125
S'atmega8'
p1126
sS'unlock_bits'
p1127
S'0x3F'
p1128
ssS'upload'
p1129
(dp1130
S'speed'
p1131
S'19200'
p1132
sS'maximum_size'
p1133
S'7168'
p1134
sS'protocol'
p1135
S'arduino'
p1136
ssS'name'
p1137
S'Arduino NG or older w/ ATmega8'
p1138
sS'build'
p1139
(dp1140
S'core'
p1141
S'arduino'
p1142
sS'mcu'
p1143
S'atmega8'
p1144
sS'cppoption1'
p1145
S'-fno-use-cxa-atexit'
p1146
sS'f_cpu'
p1147
S'16000000L'
p1148
sS'variant'
p1149
S'standard'
p1150
ssaa(lp1151
S'robotControl'
p1152
a(dp1153
S'bootloader'
p1154
(dp1155
S'extended_fuses'
p1156
S'0xcb'
p1157
sS'high_fuses'
p1158
S'0xd8'
p1159
sS'low_fuses'
p1160
S'0xff'
p1161
sS'lock_bits'
p1162
S'0x2F'
p1163
sS'file'
p1164
S'Caterina-Robot-Control.hex'
p1165
sS'path'
p1166
S'caterina-Arduino_Robot'
p1167
sS'unlock_bits'
p1168
S'0x3F'
p1169
ssS'upload'
p1170
(dp1171
S'speed'
p1172
S'57600'
p1173
sS'maximum_size'
p1174
S'28672'
p1175
sS'protocol'
p1176
S'avr109'
p1177
sS'disable_flushing'
p1178
S'true'
p1179
ssS'name'
p1180
S'Arduino Robot Control'
p1181
sS'build'
p1182
(dp1183
S'core'
p1184
S'robot'
p1185
sS'f_cpu'
p1186
S'16000000L'
p1187
sS'vid'
p1188
S'0x2341'
p1189
sS'pid'
p1190
S'0x8038'
p1191
sS'cppoption1'
p1192
S'-fno-use-cxa-atexit'
p1193
sS'variant'
p1194
S'robot_control'
p1195
sS'mcu'
p1196
S'atmega32u4'
p1197
ssaa(lp1198
S'robotMotor'
p1199
a(dp1200
S'bootloader'
p1201
(dp1202
S'extended_fuses'
p1203
S'0xcb'
p1204
sS'high_fuses'
p1205
S'0xd8'
p1206
sS'low_fuses'
p1207
S'0xff'
p1208
sS'lock_bits'
p1209
S'0x2F'
p1210
sS'file'
p1211
S'Caterina-Robot-Motor.hex'
p1212
sS'path'
p1213
S'caterina-Arduino_Robot'
p1214
sS'unlock_bits'
p1215
S'0x3F'
p1216
ssS'upload'
p1217
(dp1218
S'speed'
p1219
S'57600'
p1220
sS'maximum_size'
p1221
S'28672'
p1222
sS'protocol'
p1223
S'avr109'
p1224
sS'disable_flushing'
p1225
S'true'
p1226
ssS'name'
p1227
S'Arduino Robot Motor'
p1228
sS'build'
p1229
(dp1230
S'core'
p1231
S'robot'
p1232
sS'f_cpu'
p1233
S'16000000L'
p1234
sS'vid'
p1235
S'0x2341'
p1236
sS'pid'
p1237
S'0x8039'
p1238
sS'cppoption1'
p1239
S'-fno-use-cxa-atexit'
p1240
sS'variant'
p1241
S'robot_motor'
p1242
sS'mcu'
p1243
S'atmega32u4'
p1244
ssaatp1245
Rp1246
(dp1247
S'default'
p1248
S'uno'
p1249
sbtp1250
a(S'cxx'
p1251
S'/usr/bin/avr-g++'
p1252
tp1253
a.