(lp0
(S'cppflags'
p1
ccopy_reg
_reconstructor
p2
(cino.utils
SpaceList
p3
c__builtin__
list
p4
(lp5
S'-mmcu=atmega328p'
p6
aS'-DF_CPU=16000000L'
p7
aS'-DARDUINO=105'
p8
aS'-I/usr/share/arduino/hardware/arduino/cores/arduino'
p9
aS'-fno-use-cxa-atexit'
p10
aS'-ffunction-sections'
p11
aS'-fdata-sections'
p12
aS'-g'
p13
aS'-Os'
p14
aS'-w'
p15
aS'-I/usr/share/arduino/hardware/arduino/variants/standard'
p16
aS'-I/usr/share/arduino/libraries/MIDI'
p17
aS'-I/usr/share/arduino/hardware/arduino/cores/arduino'
p18
aS'-I/usr/share/arduino/hardware/arduino/cores/arduino/avr-libc'
p19
atp20
Rp21
tp22
a(S'cc'
p23
S'/usr/bin/avr-gcc'
p24
tp25
a(S'build_dir'
p26
S'.build/atmega328'
p27
tp28
a(S'avrdude'
p29
S'/usr/bin/avrdude'
p30
tp31
a(S'ar'
p32
S'/usr/bin/avr-ar'
p33
tp34
a(S'names'
p35
(dp36
S'cpp'
p37
S'%s.cpp'
p38
sS'obj'
p39
S'%s.o'
p40
sS'deps'
p41
S'%s.d'
p42
sS'lib'
p43
S'lib%s.a'
p44
stp45
a(S'ldflags'
p46
g2
(g3
g4
(lp47
g6
aS'-Wl,-Os'
p48
aS'-Wl,--gc-sections'
p49
atp50
Rp51
tp52
a(S'arduino_lib_version'
p53
g2
(cino.environment
Version
p54
c__builtin__
tuple
p55
(I1
I0
I5
tp56
tp57
Rp58
tp59
a(S'objcopy'
p60
S'/usr/bin/avr-objcopy'
p61
tp62
a(S'board_models'
p63
cino.environment
BoardModels
p64
((lp65
(lp66
S'uno'
p67
a(dp68
S'bootloader'
p69
(dp70
S'extended_fuses'
p71
S'0x05'
p72
sS'high_fuses'
p73
S'0xde'
p74
sS'low_fuses'
p75
S'0xff'
p76
sS'lock_bits'
p77
S'0x0F'
p78
sS'file'
p79
S'optiboot_atmega328.hex'
p80
sS'path'
p81
S'optiboot'
p82
sS'unlock_bits'
p83
S'0x3F'
p84
ssS'upload'
p85
(dp86
S'protocol'
p87
S'arduino'
p88
sS'maximum_size'
p89
S'32256'
p90
sS'speed'
p91
S'115200'
p92
ssS'build'
p93
(dp94
S'core'
p95
S'arduino'
p96
sS'mcu'
p97
S'atmega328p'
p98
sS'cppoption1'
p99
S'-fno-use-cxa-atexit'
p100
sS'f_cpu'
p101
S'16000000L'
p102
sS'variant'
p103
S'standard'
p104
ssS'name'
p105
S'Arduino Uno'
p106
saa(lp107
S'atmega328'
p108
a(dp109
S'bootloader'
p110
(dp111
S'extended_fuses'
p112
S'0x05'
p113
sS'high_fuses'
p114
S'0xDA'
p115
sS'low_fuses'
p116
S'0xFF'
p117
sS'lock_bits'
p118
S'0x0F'
p119
sS'file'
p120
S'ATmegaBOOT_168_atmega328.hex'
p121
sS'path'
p122
S'atmega'
p123
sS'unlock_bits'
p124
S'0x3F'
p125
ssS'upload'
p126
(dp127
S'protocol'
p128
S'arduino'
p129
sS'maximum_size'
p130
S'30720'
p131
sS'speed'
p132
S'57600'
p133
ssS'build'
p134
(dp135
S'core'
p136
S'arduino'
p137
sS'mcu'
p138
S'atmega328p'
p139
sS'cppoption1'
p140
S'-fno-use-cxa-atexit'
p141
sS'f_cpu'
p142
S'16000000L'
p143
sS'variant'
p144
S'standard'
p145
ssS'name'
p146
S'Arduino Duemilanove w/ ATmega328'
p147
saa(lp148
S'diecimila'
p149
a(dp150
S'bootloader'
p151
(dp152
S'extended_fuses'
p153
S'0x00'
p154
sS'high_fuses'
p155
S'0xdd'
p156
sS'low_fuses'
p157
S'0xff'
p158
sS'lock_bits'
p159
S'0x0F'
p160
sS'file'
p161
S'ATmegaBOOT_168_diecimila.hex'
p162
sS'path'
p163
S'atmega'
p164
sS'unlock_bits'
p165
S'0x3F'
p166
ssS'upload'
p167
(dp168
S'protocol'
p169
S'arduino'
p170
sS'maximum_size'
p171
S'14336'
p172
sS'speed'
p173
S'19200'
p174
ssS'build'
p175
(dp176
S'core'
p177
S'arduino'
p178
sS'mcu'
p179
S'atmega168'
p180
sS'cppoption1'
p181
S'-fno-use-cxa-atexit'
p182
sS'f_cpu'
p183
S'16000000L'
p184
sS'variant'
p185
S'standard'
p186
ssS'name'
p187
S'Arduino Diecimila or Duemilanove w/ ATmega168'
p188
saa(lp189
S'nano328'
p190
a(dp191
S'bootloader'
p192
(dp193
S'extended_fuses'
p194
S'0x05'
p195
sS'high_fuses'
p196
S'0xDA'
p197
sS'low_fuses'
p198
S'0xFF'
p199
sS'lock_bits'
p200
S'0x0F'
p201
sS'file'
p202
S'ATmegaBOOT_168_atmega328.hex'
p203
sS'path'
p204
S'atmega'
p205
sS'unlock_bits'
p206
S'0x3F'
p207
ssS'upload'
p208
(dp209
S'protocol'
p210
S'arduino'
p211
sS'maximum_size'
p212
S'30720'
p213
sS'speed'
p214
S'57600'
p215
ssS'build'
p216
(dp217
S'core'
p218
S'arduino'
p219
sS'mcu'
p220
S'atmega328p'
p221
sS'cppoption1'
p222
S'-fno-use-cxa-atexit'
p223
sS'f_cpu'
p224
S'16000000L'
p225
sS'variant'
p226
S'eightanaloginputs'
p227
ssS'name'
p228
S'Arduino Nano w/ ATmega328'
p229
saa(lp230
S'nano'
p231
a(dp232
S'bootloader'
p233
(dp234
S'extended_fuses'
p235
S'0x00'
p236
sS'high_fuses'
p237
S'0xdd'
p238
sS'low_fuses'
p239
S'0xff'
p240
sS'lock_bits'
p241
S'0x0F'
p242
sS'file'
p243
S'ATmegaBOOT_168_diecimila.hex'
p244
sS'path'
p245
S'atmega'
p246
sS'unlock_bits'
p247
S'0x3F'
p248
ssS'upload'
p249
(dp250
S'protocol'
p251
S'arduino'
p252
sS'maximum_size'
p253
S'14336'
p254
sS'speed'
p255
S'19200'
p256
ssS'build'
p257
(dp258
S'core'
p259
S'arduino'
p260
sS'mcu'
p261
S'atmega168'
p262
sS'cppoption1'
p263
S'-fno-use-cxa-atexit'
p264
sS'f_cpu'
p265
S'16000000L'
p266
sS'variant'
p267
S'eightanaloginputs'
p268
ssS'name'
p269
S'Arduino Nano w/ ATmega168'
p270
saa(lp271
S'mega2560'
p272
a(dp273
S'bootloader'
p274
(dp275
S'extended_fuses'
p276
S'0xFD'
p277
sS'high_fuses'
p278
S'0xD8'
p279
sS'low_fuses'
p280
S'0xFF'
p281
sS'lock_bits'
p282
S'0x0F'
p283
sS'file'
p284
S'stk500boot_v2_mega2560.hex'
p285
sS'path'
p286
S'stk500v2'
p287
sS'unlock_bits'
p288
S'0x3F'
p289
ssS'upload'
p290
(dp291
S'protocol'
p292
S'wiring'
p293
sS'maximum_size'
p294
S'258048'
p295
sS'speed'
p296
S'115200'
p297
ssS'build'
p298
(dp299
S'core'
p300
S'arduino'
p301
sS'mcu'
p302
S'atmega2560'
p303
sS'cppoption1'
p304
S'-fno-use-cxa-atexit'
p305
sS'f_cpu'
p306
S'16000000L'
p307
sS'variant'
p308
S'mega'
p309
ssS'name'
p310
S'Arduino Mega 2560 or Mega ADK'
p311
saa(lp312
S'mega'
p313
a(dp314
S'bootloader'
p315
(dp316
S'extended_fuses'
p317
S'0xF5'
p318
sS'high_fuses'
p319
S'0xDA'
p320
sS'low_fuses'
p321
S'0xFF'
p322
sS'lock_bits'
p323
S'0x0F'
p324
sS'file'
p325
S'ATmegaBOOT_168_atmega1280.hex'
p326
sS'path'
p327
S'atmega'
p328
sS'unlock_bits'
p329
S'0x3F'
p330
ssS'upload'
p331
(dp332
S'protocol'
p333
S'arduino'
p334
sS'maximum_size'
p335
S'126976'
p336
sS'speed'
p337
S'57600'
p338
ssS'build'
p339
(dp340
S'core'
p341
S'arduino'
p342
sS'mcu'
p343
S'atmega1280'
p344
sS'cppoption1'
p345
S'-fno-use-cxa-atexit'
p346
sS'f_cpu'
p347
S'16000000L'
p348
sS'variant'
p349
S'mega'
p350
ssS'name'
p351
S'Arduino Mega (ATmega1280)'
p352
saa(lp353
S'leonardo'
p354
a(dp355
S'bootloader'
p356
(dp357
S'extended_fuses'
p358
S'0xcb'
p359
sS'high_fuses'
p360
S'0xd8'
p361
sS'low_fuses'
p362
S'0xff'
p363
sS'lock_bits'
p364
S'0x2F'
p365
sS'file'
p366
S'Caterina-Leonardo.hex'
p367
sS'path'
p368
S'caterina'
p369
sS'unlock_bits'
p370
S'0x3F'
p371
ssS'upload'
p372
(dp373
S'protocol'
p374
S'avr109'
p375
sS'maximum_size'
p376
S'28672'
p377
sS'speed'
p378
S'57600'
p379
sS'disable_flushing'
p380
S'true'
p381
ssS'build'
p382
(dp383
S'core'
p384
S'arduino'
p385
sS'f_cpu'
p386
S'16000000L'
p387
sS'vid'
p388
S'0x2341'
p389
sS'pid'
p390
S'0x8036'
p391
sS'cppoption1'
p392
S'-fno-use-cxa-atexit'
p393
sS'variant'
p394
S'leonardo'
p395
sS'mcu'
p396
S'atmega32u4'
p397
ssS'name'
p398
S'Arduino Leonardo'
p399
saa(lp400
S'esplora'
p401
a(dp402
S'bootloader'
p403
(dp404
S'extended_fuses'
p405
S'0xcb'
p406
sS'high_fuses'
p407
S'0xd8'
p408
sS'low_fuses'
p409
S'0xff'
p410
sS'lock_bits'
p411
S'0x2F'
p412
sS'file'
p413
S'Caterina-Esplora.hex'
p414
sS'path'
p415
S'caterina'
p416
sS'unlock_bits'
p417
S'0x3F'
p418
ssS'upload'
p419
(dp420
S'protocol'
p421
S'avr109'
p422
sS'maximum_size'
p423
S'28672'
p424
sS'speed'
p425
S'57600'
p426
sS'disable_flushing'
p427
S'true'
p428
ssS'build'
p429
(dp430
S'core'
p431
S'arduino'
p432
sS'f_cpu'
p433
S'16000000L'
p434
sS'vid'
p435
S'0x2341'
p436
sS'pid'
p437
S'0x803C'
p438
sS'cppoption1'
p439
S'-fno-use-cxa-atexit'
p440
sS'variant'
p441
S'leonardo'
p442
sS'mcu'
p443
S'atmega32u4'
p444
ssS'name'
p445
S'Arduino Esplora'
p446
saa(lp447
S'micro'
p448
a(dp449
S'bootloader'
p450
(dp451
S'extended_fuses'
p452
S'0xcb'
p453
sS'high_fuses'
p454
S'0xd8'
p455
sS'low_fuses'
p456
S'0xff'
p457
sS'lock_bits'
p458
S'0x2F'
p459
sS'file'
p460
S'Caterina-Micro.hex'
p461
sS'path'
p462
S'caterina'
p463
sS'unlock_bits'
p464
S'0x3F'
p465
ssS'upload'
p466
(dp467
S'protocol'
p468
S'avr109'
p469
sS'maximum_size'
p470
S'28672'
p471
sS'speed'
p472
S'57600'
p473
sS'disable_flushing'
p474
S'true'
p475
ssS'build'
p476
(dp477
S'core'
p478
S'arduino'
p479
sS'f_cpu'
p480
S'16000000L'
p481
sS'vid'
p482
S'0x2341'
p483
sS'pid'
p484
S'0x8037'
p485
sS'cppoption1'
p486
S'-fno-use-cxa-atexit'
p487
sS'variant'
p488
S'micro'
p489
sS'mcu'
p490
S'atmega32u4'
p491
ssS'name'
p492
S'Arduino Micro'
p493
saa(lp494
S'mini328'
p495
a(dp496
S'bootloader'
p497
(dp498
S'extended_fuses'
p499
S'0x05'
p500
sS'high_fuses'
p501
S'0xd8'
p502
sS'low_fuses'
p503
S'0xff'
p504
sS'lock_bits'
p505
S'0x0F'
p506
sS'file'
p507
S'optiboot_atmega328-Mini.hex'
p508
sS'path'
p509
S'optiboot'
p510
sS'unlock_bits'
p511
S'0x3F'
p512
ssS'upload'
p513
(dp514
S'protocol'
p515
S'arduino'
p516
sS'maximum_size'
p517
S'28672'
p518
sS'speed'
p519
S'115200'
p520
ssS'build'
p521
(dp522
S'core'
p523
S'arduino'
p524
sS'mcu'
p525
S'atmega328p'
p526
sS'cppoption1'
p527
S'-fno-use-cxa-atexit'
p528
sS'f_cpu'
p529
S'16000000L'
p530
sS'variant'
p531
S'eightanaloginputs'
p532
ssS'name'
p533
S'Arduino Mini w/ ATmega328'
p534
saa(lp535
S'mini'
p536
a(dp537
S'bootloader'
p538
(dp539
S'extended_fuses'
p540
S'0x00'
p541
sS'high_fuses'
p542
S'0xdd'
p543
sS'low_fuses'
p544
S'0xff'
p545
sS'lock_bits'
p546
S'0x0F'
p547
sS'file'
p548
S'ATmegaBOOT_168_ng.hex'
p549
sS'path'
p550
S'atmega'
p551
sS'unlock_bits'
p552
S'0x3F'
p553
ssS'upload'
p554
(dp555
S'protocol'
p556
S'arduino'
p557
sS'maximum_size'
p558
S'14336'
p559
sS'speed'
p560
S'19200'
p561
ssS'build'
p562
(dp563
S'core'
p564
S'arduino'
p565
sS'mcu'
p566
S'atmega168'
p567
sS'cppoption1'
p568
S'-fno-use-cxa-atexit'
p569
sS'f_cpu'
p570
S'16000000L'
p571
sS'variant'
p572
S'eightanaloginputs'
p573
ssS'name'
p574
S'Arduino Mini w/ ATmega168'
p575
saa(lp576
S'ethernet'
p577
a(dp578
S'bootloader'
p579
(dp580
S'extended_fuses'
p581
S'0x05'
p582
sS'high_fuses'
p583
S'0xde'
p584
sS'low_fuses'
p585
S'0xff'
p586
sS'lock_bits'
p587
S'0x0F'
p588
sS'file'
p589
S'optiboot_atmega328.hex'
p590
sS'path'
p591
S'optiboot'
p592
sS'unlock_bits'
p593
S'0x3F'
p594
ssS'upload'
p595
(dp596
S'protocol'
p597
S'arduino'
p598
sS'maximum_size'
p599
S'32256'
p600
sS'speed'
p601
S'115200'
p602
ssS'build'
p603
(dp604
S'variant'
p605
S'standard'
p606
sS'mcu'
p607
S'atmega328p'
p608
sS'cppoption1'
p609
S'-fno-use-cxa-atexit'
p610
sS'f_cpu'
p611
S'16000000L'
p612
sS'core'
p613
S'arduino'
p614
ssS'name'
p615
S'Arduino Ethernet'
p616
saa(lp617
S'fio'
p618
a(dp619
S'bootloader'
p620
(dp621
S'extended_fuses'
p622
S'0x05'
p623
sS'high_fuses'
p624
S'0xDA'
p625
sS'low_fuses'
p626
S'0xFF'
p627
sS'lock_bits'
p628
S'0x0F'
p629
sS'file'
p630
S'ATmegaBOOT_168_atmega328_pro_8MHz.hex'
p631
sS'path'
p632
S'arduino:atmega'
p633
sS'unlock_bits'
p634
S'0x3F'
p635
ssS'upload'
p636
(dp637
S'protocol'
p638
S'arduino'
p639
sS'maximum_size'
p640
S'30720'
p641
sS'speed'
p642
S'57600'
p643
ssS'build'
p644
(dp645
S'core'
p646
S'arduino'
p647
sS'mcu'
p648
S'atmega328p'
p649
sS'cppoption1'
p650
S'-fno-use-cxa-atexit'
p651
sS'f_cpu'
p652
S'8000000L'
p653
sS'variant'
p654
S'eightanaloginputs'
p655
ssS'name'
p656
S'Arduino Fio'
p657
saa(lp658
S'bt328'
p659
a(dp660
S'bootloader'
p661
(dp662
S'extended_fuses'
p663
S'0x05'
p664
sS'high_fuses'
p665
S'0xd8'
p666
sS'low_fuses'
p667
S'0xff'
p668
sS'lock_bits'
p669
S'0x0F'
p670
sS'file'
p671
S'ATmegaBOOT_168_atmega328_bt.hex'
p672
sS'path'
p673
S'bt'
p674
sS'unlock_bits'
p675
S'0x3F'
p676
ssS'upload'
p677
(dp678
S'protocol'
p679
S'arduino'
p680
sS'maximum_size'
p681
S'28672'
p682
sS'speed'
p683
S'19200'
p684
sS'disable_flushing'
p685
S'true'
p686
ssS'build'
p687
(dp688
S'core'
p689
S'arduino'
p690
sS'mcu'
p691
S'atmega328p'
p692
sS'cppoption1'
p693
S'-fno-use-cxa-atexit'
p694
sS'f_cpu'
p695
S'16000000L'
p696
sS'variant'
p697
S'eightanaloginputs'
p698
ssS'name'
p699
S'Arduino BT w/ ATmega328'
p700
saa(lp701
S'bt'
p702
a(dp703
S'bootloader'
p704
(dp705
S'extended_fuses'
p706
S'0x00'
p707
sS'high_fuses'
p708
S'0xdd'
p709
sS'low_fuses'
p710
S'0xff'
p711
sS'lock_bits'
p712
S'0x0F'
p713
sS'file'
p714
S'ATmegaBOOT_168.hex'
p715
sS'path'
p716
S'bt'
p717
sS'unlock_bits'
p718
S'0x3F'
p719
ssS'upload'
p720
(dp721
S'protocol'
p722
S'arduino'
p723
sS'maximum_size'
p724
S'14336'
p725
sS'speed'
p726
S'19200'
p727
sS'disable_flushing'
p728
S'true'
p729
ssS'build'
p730
(dp731
S'core'
p732
S'arduino'
p733
sS'mcu'
p734
S'atmega168'
p735
sS'cppoption1'
p736
S'-fno-use-cxa-atexit'
p737
sS'f_cpu'
p738
S'16000000L'
p739
sS'variant'
p740
S'eightanaloginputs'
p741
ssS'name'
p742
S'Arduino BT w/ ATmega168'
p743
saa(lp744
S'LilyPadUSB'
p745
a(dp746
S'bootloader'
p747
(dp748
S'extended_fuses'
p749
S'0xce'
p750
sS'high_fuses'
p751
S'0xd8'
p752
sS'low_fuses'
p753
S'0xff'
p754
sS'lock_bits'
p755
S'0x2F'
p756
sS'file'
p757
S'Caterina-LilyPadUSB.hex'
p758
sS'path'
p759
S'caterina-LilyPadUSB'
p760
sS'unlock_bits'
p761
S'0x3F'
p762
ssS'upload'
p763
(dp764
S'protocol'
p765
S'avr109'
p766
sS'maximum_size'
p767
S'28672'
p768
sS'speed'
p769
S'57600'
p770
sS'disable_flushing'
p771
S'true'
p772
ssS'build'
p773
(dp774
S'core'
p775
S'arduino'
p776
sS'f_cpu'
p777
S'8000000L'
p778
sS'vid'
p779
S'0x1B4F'
p780
sS'pid'
p781
S'0x9208'
p782
sS'cppoption1'
p783
S'-fno-use-cxa-atexit'
p784
sS'variant'
p785
S'leonardo'
p786
sS'mcu'
p787
S'atmega32u4'
p788
ssS'name'
p789
S'LilyPad Arduino USB'
p790
saa(lp791
S'lilypad328'
p792
a(dp793
S'bootloader'
p794
(dp795
S'extended_fuses'
p796
S'0x05'
p797
sS'high_fuses'
p798
S'0xDA'
p799
sS'low_fuses'
p800
S'0xFF'
p801
sS'lock_bits'
p802
S'0x0F'
p803
sS'file'
p804
S'ATmegaBOOT_168_atmega328_pro_8MHz.hex'
p805
sS'path'
p806
S'atmega'
p807
sS'unlock_bits'
p808
S'0x3F'
p809
ssS'upload'
p810
(dp811
S'protocol'
p812
S'arduino'
p813
sS'maximum_size'
p814
S'30720'
p815
sS'speed'
p816
S'57600'
p817
ssS'build'
p818
(dp819
S'core'
p820
S'arduino'
p821
sS'mcu'
p822
S'atmega328p'
p823
sS'cppoption1'
p824
S'-fno-use-cxa-atexit'
p825
sS'f_cpu'
p826
S'8000000L'
p827
sS'variant'
p828
S'standard'
p829
ssS'name'
p830
S'LilyPad Arduino w/ ATmega328'
p831
saa(lp832
S'lilypad'
p833
a(dp834
S'bootloader'
p835
(dp836
S'extended_fuses'
p837
S'0x00'
p838
sS'high_fuses'
p839
S'0xdd'
p840
sS'low_fuses'
p841
S'0xe2'
p842
sS'lock_bits'
p843
S'0x0F'
p844
sS'file'
p845
S'LilyPadBOOT_168.hex'
p846
sS'path'
p847
S'lilypad'
p848
sS'unlock_bits'
p849
S'0x3F'
p850
ssS'upload'
p851
(dp852
S'protocol'
p853
S'arduino'
p854
sS'maximum_size'
p855
S'14336'
p856
sS'speed'
p857
S'19200'
p858
ssS'build'
p859
(dp860
S'core'
p861
S'arduino'
p862
sS'mcu'
p863
S'atmega168'
p864
sS'cppoption1'
p865
S'-fno-use-cxa-atexit'
p866
sS'f_cpu'
p867
S'8000000L'
p868
sS'variant'
p869
S'standard'
p870
ssS'name'
p871
S'LilyPad Arduino w/ ATmega168'
p872
saa(lp873
S'pro5v328'
p874
a(dp875
S'bootloader'
p876
(dp877
S'extended_fuses'
p878
S'0x05'
p879
sS'high_fuses'
p880
S'0xDA'
p881
sS'low_fuses'
p882
S'0xFF'
p883
sS'lock_bits'
p884
S'0x0F'
p885
sS'file'
p886
S'ATmegaBOOT_168_atmega328.hex'
p887
sS'path'
p888
S'atmega'
p889
sS'unlock_bits'
p890
S'0x3F'
p891
ssS'upload'
p892
(dp893
S'protocol'
p894
S'arduino'
p895
sS'maximum_size'
p896
S'30720'
p897
sS'speed'
p898
S'57600'
p899
ssS'build'
p900
(dp901
S'core'
p902
S'arduino'
p903
sS'mcu'
p904
S'atmega328p'
p905
sS'cppoption1'
p906
S'-fno-use-cxa-atexit'
p907
sS'f_cpu'
p908
S'16000000L'
p909
sS'variant'
p910
S'standard'
p911
ssS'name'
p912
S'Arduino Pro or Pro Mini (5V, 16 MHz) w/ ATmega328'
p913
saa(lp914
S'pro5v'
p915
a(dp916
S'bootloader'
p917
(dp918
S'extended_fuses'
p919
S'0x00'
p920
sS'high_fuses'
p921
S'0xdd'
p922
sS'low_fuses'
p923
S'0xff'
p924
sS'lock_bits'
p925
S'0x0F'
p926
sS'file'
p927
S'ATmegaBOOT_168_diecimila.hex'
p928
sS'path'
p929
S'atmega'
p930
sS'unlock_bits'
p931
S'0x3F'
p932
ssS'upload'
p933
(dp934
S'protocol'
p935
S'arduino'
p936
sS'maximum_size'
p937
S'14336'
p938
sS'speed'
p939
S'19200'
p940
ssS'build'
p941
(dp942
S'core'
p943
S'arduino'
p944
sS'mcu'
p945
S'atmega168'
p946
sS'cppoption1'
p947
S'-fno-use-cxa-atexit'
p948
sS'f_cpu'
p949
S'16000000L'
p950
sS'variant'
p951
S'standard'
p952
ssS'name'
p953
S'Arduino Pro or Pro Mini (5V, 16 MHz) w/ ATmega168'
p954
saa(lp955
S'pro328'
p956
a(dp957
S'bootloader'
p958
(dp959
S'extended_fuses'
p960
S'0x05'
p961
sS'high_fuses'
p962
S'0xDA'
p963
sS'low_fuses'
p964
S'0xFF'
p965
sS'lock_bits'
p966
S'0x0F'
p967
sS'file'
p968
S'ATmegaBOOT_168_atmega328_pro_8MHz.hex'
p969
sS'path'
p970
S'atmega'
p971
sS'unlock_bits'
p972
S'0x3F'
p973
ssS'upload'
p974
(dp975
S'protocol'
p976
S'arduino'
p977
sS'maximum_size'
p978
S'30720'
p979
sS'speed'
p980
S'57600'
p981
ssS'build'
p982
(dp983
S'core'
p984
S'arduino'
p985
sS'mcu'
p986
S'atmega328p'
p987
sS'cppoption1'
p988
S'-fno-use-cxa-atexit'
p989
sS'f_cpu'
p990
S'8000000L'
p991
sS'variant'
p992
S'standard'
p993
ssS'name'
p994
S'Arduino Pro or Pro Mini (3.3V, 8 MHz) w/ ATmega328'
p995
saa(lp996
S'pro'
p997
a(dp998
S'bootloader'
p999
(dp1000
S'extended_fuses'
p1001
S'0x00'
p1002
sS'high_fuses'
p1003
S'0xdd'
p1004
sS'low_fuses'
p1005
S'0xc6'
p1006
sS'lock_bits'
p1007
S'0x0F'
p1008
sS'file'
p1009
S'ATmegaBOOT_168_pro_8MHz.hex'
p1010
sS'path'
p1011
S'atmega'
p1012
sS'unlock_bits'
p1013
S'0x3F'
p1014
ssS'upload'
p1015
(dp1016
S'protocol'
p1017
S'arduino'
p1018
sS'maximum_size'
p1019
S'14336'
p1020
sS'speed'
p1021
S'19200'
p1022
ssS'build'
p1023
(dp1024
S'core'
p1025
S'arduino'
p1026
sS'mcu'
p1027
S'atmega168'
p1028
sS'cppoption1'
p1029
S'-fno-use-cxa-atexit'
p1030
sS'f_cpu'
p1031
S'8000000L'
p1032
sS'variant'
p1033
S'standard'
p1034
ssS'name'
p1035
S'Arduino Pro or Pro Mini (3.3V, 8 MHz) w/ ATmega168'
p1036
saa(lp1037
S'atmega168'
p1038
a(dp1039
S'bootloader'
p1040
(dp1041
S'extended_fuses'
p1042
S'0x00'
p1043
sS'high_fuses'
p1044
S'0xdd'
p1045
sS'low_fuses'
p1046
S'0xff'
p1047
sS'lock_bits'
p1048
S'0x0F'
p1049
sS'file'
p1050
S'ATmegaBOOT_168_ng.hex'
p1051
sS'path'
p1052
S'atmega'
p1053
sS'unlock_bits'
p1054
S'0x3F'
p1055
ssS'upload'
p1056
(dp1057
S'protocol'
p1058
S'arduino'
p1059
sS'maximum_size'
p1060
S'14336'
p1061
sS'speed'
p1062
S'19200'
p1063
ssS'build'
p1064
(dp1065
S'core'
p1066
S'arduino'
p1067
sS'mcu'
p1068
S'atmega168'
p1069
sS'cppoption1'
p1070
S'-fno-use-cxa-atexit'
p1071
sS'f_cpu'
p1072
S'16000000L'
p1073
sS'variant'
p1074
S'standard'
p1075
ssS'name'
p1076
S'Arduino NG or older w/ ATmega168'
p1077
saa(lp1078
S'atmega8'
p1079
a(dp1080
S'bootloader'
p1081
(dp1082
S'high_fuses'
p1083
S'0xca'
p1084
sS'low_fuses'
p1085
S'0xdf'
p1086
sS'lock_bits'
p1087
S'0x0F'
p1088
sS'file'
p1089
S'ATmegaBOOT-prod-firmware-2009-11-07.hex'
p1090
sS'path'
p1091
S'atmega8'
p1092
sS'unlock_bits'
p1093
S'0x3F'
p1094
ssS'upload'
p1095
(dp1096
S'protocol'
p1097
S'arduino'
p1098
sS'maximum_size'
p1099
S'7168'
p1100
sS'speed'
p1101
S'19200'
p1102
ssS'build'
p1103
(dp1104
S'core'
p1105
S'arduino'
p1106
sS'mcu'
p1107
S'atmega8'
p1108
sS'cppoption1'
p1109
S'-fno-use-cxa-atexit'
p1110
sS'f_cpu'
p1111
S'16000000L'
p1112
sS'variant'
p1113
S'standard'
p1114
ssS'name'
p1115
S'Arduino NG or older w/ ATmega8'
p1116
saa(lp1117
S'robotControl'
p1118
a(dp1119
S'bootloader'
p1120
(dp1121
S'extended_fuses'
p1122
S'0xcb'
p1123
sS'high_fuses'
p1124
S'0xd8'
p1125
sS'low_fuses'
p1126
S'0xff'
p1127
sS'lock_bits'
p1128
S'0x2F'
p1129
sS'file'
p1130
S'Caterina-Robot-Control.hex'
p1131
sS'path'
p1132
S'caterina-Arduino_Robot'
p1133
sS'unlock_bits'
p1134
S'0x3F'
p1135
ssS'upload'
p1136
(dp1137
S'protocol'
p1138
S'avr109'
p1139
sS'maximum_size'
p1140
S'28672'
p1141
sS'speed'
p1142
S'57600'
p1143
sS'disable_flushing'
p1144
S'true'
p1145
ssS'build'
p1146
(dp1147
S'core'
p1148
S'robot'
p1149
sS'f_cpu'
p1150
S'16000000L'
p1151
sS'vid'
p1152
S'0x2341'
p1153
sS'pid'
p1154
S'0x8038'
p1155
sS'cppoption1'
p1156
S'-fno-use-cxa-atexit'
p1157
sS'variant'
p1158
S'robot_control'
p1159
sS'mcu'
p1160
S'atmega32u4'
p1161
ssS'name'
p1162
S'Arduino Robot Control'
p1163
saa(lp1164
S'robotMotor'
p1165
a(dp1166
S'bootloader'
p1167
(dp1168
S'extended_fuses'
p1169
S'0xcb'
p1170
sS'high_fuses'
p1171
S'0xd8'
p1172
sS'low_fuses'
p1173
S'0xff'
p1174
sS'lock_bits'
p1175
S'0x2F'
p1176
sS'file'
p1177
S'Caterina-Robot-Motor.hex'
p1178
sS'path'
p1179
S'caterina-Arduino_Robot'
p1180
sS'unlock_bits'
p1181
S'0x3F'
p1182
ssS'upload'
p1183
(dp1184
S'protocol'
p1185
S'avr109'
p1186
sS'maximum_size'
p1187
S'28672'
p1188
sS'speed'
p1189
S'57600'
p1190
sS'disable_flushing'
p1191
S'true'
p1192
ssS'build'
p1193
(dp1194
S'core'
p1195
S'robot'
p1196
sS'f_cpu'
p1197
S'16000000L'
p1198
sS'vid'
p1199
S'0x2341'
p1200
sS'pid'
p1201
S'0x8039'
p1202
sS'cppoption1'
p1203
S'-fno-use-cxa-atexit'
p1204
sS'variant'
p1205
S'robot_motor'
p1206
sS'mcu'
p1207
S'atmega32u4'
p1208
ssS'name'
p1209
S'Arduino Robot Motor'
p1210
saatp1211
Rp1212
(dp1213
S'default'
p1214
S'uno'
p1215
sbtp1216
a(S'used_libs'
p1217
(lp1218
S'/usr/share/arduino/libraries/MIDI'
p1219
aS'/usr/share/arduino/hardware/arduino/cores/arduino'
p1220
atp1221
a(S'make'
p1222
S'/usr/bin/make'
p1223
tp1224
a(S'arduino_libraries_dir'
p1225
S'/usr/share/arduino/libraries'
p1226
tp1227
a(S'cxx'
p1228
S'/usr/bin/avr-g++'
p1229
tp1230
a(S'cflags'
p1231
g2
(g3
g4
(lp1232
tp1233
Rp1234
tp1235
a(S'cxxflags'
p1236
g2
(g3
g4
(lp1237
S'-fno-exceptions'
p1238
atp1239
Rp1240
tp1241
a(S'arduino_variants_dir'
p1242
S'/usr/share/arduino/hardware/arduino/variants'
p1243
tp1244
a(S'stty'
p1245
S'/usr/bin/stty'
p1246
tp1247
a(S'version.txt'
p1248
S'/usr/share/arduino/lib/version.txt'
p1249
tp1250
a(S'arduino_core_dir'
p1251
g1220
tp1252
a(S'boards.txt'
p1253
S'/usr/share/arduino/hardware/arduino/boards.txt'
p1254
tp1255
a(S'avrdude.conf'
p1256
S'/etc/avrdude/avrdude.conf'
p1257
tp1258
a(S'deps'
p1259
g2
(g3
g4
(lp1260
S'.build/atmega328/src/dependencies.d'
p1261
aS'.build/atmega328/arduino/dependencies.d'
p1262
aS'.build/atmega328/MIDI/dependencies.d'
p1263
atp1264
Rp1265
tp1266
a.